ccopy_reg
_reconstructor
p0
(cpandas.core.frame
DataFrame
p1
c__builtin__
object
p2
Ntp3
Rp4
(dp5
S'_metadata'
p6
(lp7
sS'_typ'
p8
S'dataframe'
p9
sS'_data'
p10
g0
(cpandas.core.internals
BlockManager
p11
g2
Ntp12
Rp13
((lp14
cpandas.core.index
_new_Index
p15
(cpandas.core.index
Int64Index
p16
(dp17
S'data'
p18
cnumpy.core.multiarray
_reconstruct
p19
(cnumpy
ndarray
p20
(I0
tp21
S'b'
p22
tp23
Rp24
(I1
(I2
tp25
cnumpy
dtype
p26
(S'i8'
p27
I0
I1
tp28
Rp29
(I3
S'<'
p30
NNNI-1
I-1
I0
tp31
bI00
S'\x00\x00\x00\x00\x00\x00\x00\x00\x01\x00\x00\x00\x00\x00\x00\x00'
p32
tp33
bsS'name'
p34
Nstp35
Rp36
ag15
(g16
(dp37
g18
g19
(g20
(I0
tp38
g22
tp39
Rp40
(I1
(I216
tp41
g29
I00
S'\x00\x00\x00\x00\x00\x00\x00\x00\x01\x00\x00\x00\x00\x00\x00\x00\x02\x00\x00\x00\x00\x00\x00\x00\x03\x00\x00\x00\x00\x00\x00\x00\x04\x00\x00\x00\x00\x00\x00\x00\x05\x00\x00\x00\x00\x00\x00\x00\x06\x00\x00\x00\x00\x00\x00\x00\x07\x00\x00\x00\x00\x00\x00\x00\x08\x00\x00\x00\x00\x00\x00\x00\t\x00\x00\x00\x00\x00\x00\x00\n\x00\x00\x00\x00\x00\x00\x00\x0b\x00\x00\x00\x00\x00\x00\x00\x0c\x00\x00\x00\x00\x00\x00\x00\r\x00\x00\x00\x00\x00\x00\x00\x0e\x00\x00\x00\x00\x00\x00\x00\x0f\x00\x00\x00\x00\x00\x00\x00\x10\x00\x00\x00\x00\x00\x00\x00\x11\x00\x00\x00\x00\x00\x00\x00\x12\x00\x00\x00\x00\x00\x00\x00\x13\x00\x00\x00\x00\x00\x00\x00\x14\x00\x00\x00\x00\x00\x00\x00\x15\x00\x00\x00\x00\x00\x00\x00\x16\x00\x00\x00\x00\x00\x00\x00\x17\x00\x00\x00\x00\x00\x00\x00\x18\x00\x00\x00\x00\x00\x00\x00\x19\x00\x00\x00\x00\x00\x00\x00\x1a\x00\x00\x00\x00\x00\x00\x00\x1b\x00\x00\x00\x00\x00\x00\x00\x1c\x00\x00\x00\x00\x00\x00\x00\x1d\x00\x00\x00\x00\x00\x00\x00\x1e\x00\x00\x00\x00\x00\x00\x00\x1f\x00\x00\x00\x00\x00\x00\x00 \x00\x00\x00\x00\x00\x00\x00!\x00\x00\x00\x00\x00\x00\x00"\x00\x00\x00\x00\x00\x00\x00#\x00\x00\x00\x00\x00\x00\x00$\x00\x00\x00\x00\x00\x00\x00%\x00\x00\x00\x00\x00\x00\x00&\x00\x00\x00\x00\x00\x00\x00\'\x00\x00\x00\x00\x00\x00\x00(\x00\x00\x00\x00\x00\x00\x00)\x00\x00\x00\x00\x00\x00\x00*\x00\x00\x00\x00\x00\x00\x00+\x00\x00\x00\x00\x00\x00\x00,\x00\x00\x00\x00\x00\x00\x00-\x00\x00\x00\x00\x00\x00\x00.\x00\x00\x00\x00\x00\x00\x00/\x00\x00\x00\x00\x00\x00\x000\x00\x00\x00\x00\x00\x00\x001\x00\x00\x00\x00\x00\x00\x002\x00\x00\x00\x00\x00\x00\x003\x00\x00\x00\x00\x00\x00\x004\x00\x00\x00\x00\x00\x00\x005\x00\x00\x00\x00\x00\x00\x006\x00\x00\x00\x00\x00\x00\x007\x00\x00\x00\x00\x00\x00\x008\x00\x00\x00\x00\x00\x00\x009\x00\x00\x00\x00\x00\x00\x00:\x00\x00\x00\x00\x00\x00\x00;\x00\x00\x00\x00\x00\x00\x00<\x00\x00\x00\x00\x00\x00\x00=\x00\x00\x00\x00\x00\x00\x00>\x00\x00\x00\x00\x00\x00\x00?\x00\x00\x00\x00\x00\x00\x00@\x00\x00\x00\x00\x00\x00\x00A\x00\x00\x00\x00\x00\x00\x00B\x00\x00\x00\x00\x00\x00\x00C\x00\x00\x00\x00\x00\x00\x00D\x00\x00\x00\x00\x00\x00\x00E\x00\x00\x00\x00\x00\x00\x00F\x00\x00\x00\x00\x00\x00\x00G\x00\x00\x00\x00\x00\x00\x00H\x00\x00\x00\x00\x00\x00\x00I\x00\x00\x00\x00\x00\x00\x00J\x00\x00\x00\x00\x00\x00\x00K\x00\x00\x00\x00\x00\x00\x00L\x00\x00\x00\x00\x00\x00\x00M\x00\x00\x00\x00\x00\x00\x00N\x00\x00\x00\x00\x00\x00\x00O\x00\x00\x00\x00\x00\x00\x00P\x00\x00\x00\x00\x00\x00\x00Q\x00\x00\x00\x00\x00\x00\x00R\x00\x00\x00\x00\x00\x00\x00S\x00\x00\x00\x00\x00\x00\x00T\x00\x00\x00\x00\x00\x00\x00U\x00\x00\x00\x00\x00\x00\x00V\x00\x00\x00\x00\x00\x00\x00W\x00\x00\x00\x00\x00\x00\x00X\x00\x00\x00\x00\x00\x00\x00Y\x00\x00\x00\x00\x00\x00\x00Z\x00\x00\x00\x00\x00\x00\x00[\x00\x00\x00\x00\x00\x00\x00\\\x00\x00\x00\x00\x00\x00\x00]\x00\x00\x00\x00\x00\x00\x00^\x00\x00\x00\x00\x00\x00\x00_\x00\x00\x00\x00\x00\x00\x00`\x00\x00\x00\x00\x00\x00\x00a\x00\x00\x00\x00\x00\x00\x00b\x00\x00\x00\x00\x00\x00\x00c\x00\x00\x00\x00\x00\x00\x00d\x00\x00\x00\x00\x00\x00\x00e\x00\x00\x00\x00\x00\x00\x00f\x00\x00\x00\x00\x00\x00\x00g\x00\x00\x00\x00\x00\x00\x00h\x00\x00\x00\x00\x00\x00\x00i\x00\x00\x00\x00\x00\x00\x00j\x00\x00\x00\x00\x00\x00\x00k\x00\x00\x00\x00\x00\x00\x00l\x00\x00\x00\x00\x00\x00\x00m\x00\x00\x00\x00\x00\x00\x00n\x00\x00\x00\x00\x00\x00\x00o\x00\x00\x00\x00\x00\x00\x00p\x00\x00\x00\x00\x00\x00\x00q\x00\x00\x00\x00\x00\x00\x00r\x00\x00\x00\x00\x00\x00\x00s\x00\x00\x00\x00\x00\x00\x00t\x00\x00\x00\x00\x00\x00\x00u\x00\x00\x00\x00\x00\x00\x00v\x00\x00\x00\x00\x00\x00\x00w\x00\x00\x00\x00\x00\x00\x00x\x00\x00\x00\x00\x00\x00\x00y\x00\x00\x00\x00\x00\x00\x00z\x00\x00\x00\x00\x00\x00\x00{\x00\x00\x00\x00\x00\x00\x00|\x00\x00\x00\x00\x00\x00\x00}\x00\x00\x00\x00\x00\x00\x00~\x00\x00\x00\x00\x00\x00\x00\x7f\x00\x00\x00\x00\x00\x00\x00\x80\x00\x00\x00\x00\x00\x00\x00\x81\x00\x00\x00\x00\x00\x00\x00\x82\x00\x00\x00\x00\x00\x00\x00\x83\x00\x00\x00\x00\x00\x00\x00\x84\x00\x00\x00\x00\x00\x00\x00\x85\x00\x00\x00\x00\x00\x00\x00\x86\x00\x00\x00\x00\x00\x00\x00\x87\x00\x00\x00\x00\x00\x00\x00\x88\x00\x00\x00\x00\x00\x00\x00\x89\x00\x00\x00\x00\x00\x00\x00\x8a\x00\x00\x00\x00\x00\x00\x00\x8b\x00\x00\x00\x00\x00\x00\x00\x8c\x00\x00\x00\x00\x00\x00\x00\x8d\x00\x00\x00\x00\x00\x00\x00\x8e\x00\x00\x00\x00\x00\x00\x00\x8f\x00\x00\x00\x00\x00\x00\x00\x90\x00\x00\x00\x00\x00\x00\x00\x91\x00\x00\x00\x00\x00\x00\x00\x92\x00\x00\x00\x00\x00\x00\x00\x93\x00\x00\x00\x00\x00\x00\x00\x94\x00\x00\x00\x00\x00\x00\x00\x95\x00\x00\x00\x00\x00\x00\x00\x96\x00\x00\x00\x00\x00\x00\x00\x97\x00\x00\x00\x00\x00\x00\x00\x98\x00\x00\x00\x00\x00\x00\x00\x99\x00\x00\x00\x00\x00\x00\x00\x9a\x00\x00\x00\x00\x00\x00\x00\x9b\x00\x00\x00\x00\x00\x00\x00\x9c\x00\x00\x00\x00\x00\x00\x00\x9d\x00\x00\x00\x00\x00\x00\x00\x9e\x00\x00\x00\x00\x00\x00\x00\x9f\x00\x00\x00\x00\x00\x00\x00\xa0\x00\x00\x00\x00\x00\x00\x00\xa1\x00\x00\x00\x00\x00\x00\x00\xa2\x00\x00\x00\x00\x00\x00\x00\xa3\x00\x00\x00\x00\x00\x00\x00\xa4\x00\x00\x00\x00\x00\x00\x00\xa5\x00\x00\x00\x00\x00\x00\x00\xa6\x00\x00\x00\x00\x00\x00\x00\xa7\x00\x00\x00\x00\x00\x00\x00\xa8\x00\x00\x00\x00\x00\x00\x00\xa9\x00\x00\x00\x00\x00\x00\x00\xaa\x00\x00\x00\x00\x00\x00\x00\xab\x00\x00\x00\x00\x00\x00\x00\xac\x00\x00\x00\x00\x00\x00\x00\xad\x00\x00\x00\x00\x00\x00\x00\xae\x00\x00\x00\x00\x00\x00\x00\xaf\x00\x00\x00\x00\x00\x00\x00\xb0\x00\x00\x00\x00\x00\x00\x00\xb1\x00\x00\x00\x00\x00\x00\x00\xb2\x00\x00\x00\x00\x00\x00\x00\xb3\x00\x00\x00\x00\x00\x00\x00\xb4\x00\x00\x00\x00\x00\x00\x00\xb5\x00\x00\x00\x00\x00\x00\x00\xb6\x00\x00\x00\x00\x00\x00\x00\xb7\x00\x00\x00\x00\x00\x00\x00\xb8\x00\x00\x00\x00\x00\x00\x00\xb9\x00\x00\x00\x00\x00\x00\x00\xba\x00\x00\x00\x00\x00\x00\x00\xbb\x00\x00\x00\x00\x00\x00\x00\xbc\x00\x00\x00\x00\x00\x00\x00\xbd\x00\x00\x00\x00\x00\x00\x00\xbe\x00\x00\x00\x00\x00\x00\x00\xbf\x00\x00\x00\x00\x00\x00\x00\xc0\x00\x00\x00\x00\x00\x00\x00\xc1\x00\x00\x00\x00\x00\x00\x00\xc2\x00\x00\x00\x00\x00\x00\x00\xc3\x00\x00\x00\x00\x00\x00\x00\xc4\x00\x00\x00\x00\x00\x00\x00\xc5\x00\x00\x00\x00\x00\x00\x00\xc6\x00\x00\x00\x00\x00\x00\x00\xc7\x00\x00\x00\x00\x00\x00\x00\xc8\x00\x00\x00\x00\x00\x00\x00\xc9\x00\x00\x00\x00\x00\x00\x00\xca\x00\x00\x00\x00\x00\x00\x00\xcb\x00\x00\x00\x00\x00\x00\x00\xcc\x00\x00\x00\x00\x00\x00\x00\xcd\x00\x00\x00\x00\x00\x00\x00\xce\x00\x00\x00\x00\x00\x00\x00\xcf\x00\x00\x00\x00\x00\x00\x00\xd0\x00\x00\x00\x00\x00\x00\x00\xd1\x00\x00\x00\x00\x00\x00\x00\xd2\x00\x00\x00\x00\x00\x00\x00\xd3\x00\x00\x00\x00\x00\x00\x00\xd4\x00\x00\x00\x00\x00\x00\x00\xd5\x00\x00\x00\x00\x00\x00\x00\xd6\x00\x00\x00\x00\x00\x00\x00\xd7\x00\x00\x00\x00\x00\x00\x00'
p42
tp43
bsg34
Nstp44
Rp45
a(lp46
g19
(g20
(I0
tp47
g22
tp48
Rp49
(I1
(I2
I216
tp50
g26
(S'O8'
p51
I0
I1
tp52
Rp53
(I3
S'|'
p54
NNNI-1
I-1
I63
tp55
bI00
(lp56
(lp57
Vset
p58
aVform
p59
aVopac
p60
aVuse
p61
aVdecim
p62
aVdoubl
p63
aVwant
p64
aVuse
p65
aVtrack-bar
p66
aVchang
p67
aVform
p68
aVopac
p69
aVcode
p70
aVtri
p71
aVbuild
p72
aVerror
p73
aVcannot
p74
aVimplicitli
p75
aVconvert
p76
aVtype
p77
aVdecim
p78
aVdoubl
p79
aVtri
p80
aVcontrol
p81
aVdoesnt
p82
aVwork
p83
aVcode
p84
aVwork
p85
aVfine
p86
aVvbnet
p87
aVpast
p88
aa(lp89
Vdoesnt
p90
aVpercentag
p91
aVwidth
p92
aVchild
p93
aVabsolut
p94
aVposit
p95
aVparent
p96
aVwork
p97
aVabsolut
p98
aVposit
p99
aVcontain
p100
aVsever
p101
aVchildren
p102
aVrel
p103
aVposit
p104
aVuse
p105
aVpercentage-bas
p106
aVwidth
p107
aVchild
p108
aVcollaps
p109
aVwidth
p110
aVie
p111
aVfirefox
p112
aVsafari
p113
aVuse
p114
aVpixel
p115
aVwidth
p116
aVwork
p117
aVparent
p118
aVrel
p119
aVposit
p120
aVpercentag
p121
aVwidth
p122
aVchild
p123
aVwork
p124
aVsometh
p125
aVim
p126
aVmiss
p127
aVeasi
p128
aVfix
p129
aVbesid
p130
aVpixel-bas
p131
aVwidth
p132
aVchild
p133
aVarea
p134
aVspecif
p135
aVcover
p136
aa(lp137
Vtool
p138
aVconvert
p139
aVvisual
p140
aVj#
p141
aVcode
p142
aVc#
p143
aVconvers
p144
aVtool
p145
aVport
p146
aVvisual
p147
aVj#
p148
aVcode
p149
aVc#
p150
aa(lp151
Vcalcul
p152
aVsomeon
p153
aVage
p154
aVc#
p155
aVrepres
p156
aVperson
p157
aVbirthday
p158
aVcalcul
p159
aVage
p160
aa(lp161
Vcalcul
p162
aVrel
p163
aVtime
p164
aVspecif
p165
aVvalu
p166
aVdisplay
p167
aVrel
p168
aVtime
p169
aVhour
p170
aVday
p171
aVmonth
p172
aVet
p173
aVcetera
p174
aa(lp175
Vdetermin
p176
aVweb
p177
aVuser
p178
aVtime
p179
aVzone
p180
aVstandard
p181
aVway
p182
aVweb
p183
aVserver
p184
aVdetermin
p185
aVtime
p186
aVzone
p187
aVoffset
p188
aVuser
p189
aVperhap
p190
aVheader
p191
aVpart
p192
aVuser-ag
p193
aVdescript
p194
aa(lp195
Vdiffer
p196
aVmathfloor
p197
aVmathtrunc
p198
aVdiffer
p199
aVnet
p200
aa(lp201
Vfill
p202
aVdataset
p203
aVdatat
p204
aVlinq
p205
aVqueri
p206
aVresult
p207
aVset
p208
aVexpos
p209
aVlinq
p210
aVqueri
p211
aVasmx
p212
aVweb
p213
aVservic
p214
aVusual
p215
aVbusi
p216
aVtier
p217
aVreturn
p218
aVtype
p219
aVserial
p220
aVtransport
p221
aVasmx
p222
aVlinq
p223
aVqueri
p224
aVway
p225
aVpopul
p226
aVtype
p227
aVlinq
p228
aVqueri
p229
aVresultset
p230
aVlinq
p231
aVqueri
p232
aValtern
p233
aVlinq
p234
aVqueri
p235
aVserializ
p236
aVexpos
p237
aVasmx
p238
aVweb
p239
aVservic
p240
aa(lp241
Vbinari
p242
aVdata
p243
aVmysql
p244
aVstore
p245
aVbinari
p246
aVdata
p247
aVmysql
p248
aa(lp249
Vfastest
p250
aVway
p251
aVvalu
p252
aV\u03c0
p253
aVsolut
p254
aVwelcom
p255
aVlanguag
p256
aVim
p257
aVlook
p258
aVfastest
p259
aVway
p260
aVvalu
p261
aV\u03c0
p262
aVperson
p263
aVchalleng
p264
aVspecif
p265
aVim
p266
aVuse
p267
aVway
p268
aVdont
p269
aVinvolv
p270
aVuse
p271
aVd
p272
aVconstant
p273
aVhard-cod
p274
aVnumber
p275
aVprogram
p276
aVtest
p277
aVvariou
p278
aVway
p279
aVinlin
p280
aVassembl
p281
aVversion
p282
aVtheori
p283
aVfastest
p284
aVoption
p285
aVclearli
p286
aVportable;
p287
aVive
p288
aVinclud
p289
aVbaselin
p290
aVcompar
p291
aVversion
p292
aVtest
p293
aVbuilt-in
p294
aVversion
p295
aVfastest
p296
aVgcc
p297
aVauto-fold
p298
aVconstant
p299
aVspecifi
p300
aVversion
p301
aVfastest
p302
aVmain
p303
aVtest
p304
aVprogram
p305
aVinlin
p306
aVassembl
p307
aVstuff
p308
aVnote
p309
aVwork
p310
aVx
p311
aVx
p312
aVsystem
p313
aVbuild
p314
aVscript
p315
aVbuild
p316
aVconfigur
p317
aVim
p318
aVtest
p319
aVtest
p320
aVvariou
p321
aVcompil
p322
aVflag
p323
aVive
p324
aVcompar
p325
aV-bit
p326
aV-bit
p327
aVoptimis
p328
aVdiffer
p329
aVive
p330
aVtri
p331
aVswitch
p332
aVorder
p333
aVtest
p334
aVversion
p335
aVtop
p336
aVeveri
p337
aVtime
p338
aa(lp339
Vthrow
p340
aVerror
p341
aVmysql
p342
aVtrigger
p343
aVtrigger
p344
aVupdat
p345
aVtabl
p346
aVthrow
p347
aVerror
p348
aVprevent
p349
aVupdat
p350
aVtabl
p351
aa(lp352
Vuse
p353
aVc
p354
aVsocket
p355
aVapi
p356
aVc++
p357
aVz/o
p358
aVive
p359
aVissu
p360
aVc
p361
aVsocket
p362
aVapi
p363
aVwork
p364
aVproperli
p365
aVc++
p366
aVspecif
p367
aVinclud
p368
aVsys/socketh
p369
aVcompil
p370
aVtime
p371
aVerror
p372
aVtell
p373
aVaf_inet
p374
aVdefin
p375
aVmiss
p376
aVsometh
p377
aVobviou
p378
aVrelat
p379
aVfact
p380
aVim
p381
aVcode
p382
aVz/o
p383
aVproblem
p384
aVmuch
p385
aVcomplic
p386
aVoh
p387
aVdear
p388
aVinvestig
p389
aVdiscov
p390
aV#ifdef
p391
aVim
p392
aVhit
p393
aVappar
p394
aVz/o
p395
aVisnt
p396
aVhappi
p397
aVdefin
p398
aVtype
p399
aVsocket
p400
aVim
p401
aVuse
p402
aVlittl
p403
aVaction
p404
aVperson
p405
aVidea
p406
aVoe
p407
aVsocket
p408
aVthingi
p409
aVz/o
p410
aVsocket
p411
aVprogramm
p412
aVperhap
p413
aVrundown
p414
aVwork
p415
aa(lp416
Vcheck
p417
aVchang
p418
aVsql
p419
aVserver
p420
aVtabl
p421
aVmonitor
p422
aVsql
p423
aVserver
p424
aVdatabas
p425
aVchang
p426
aVtabl
p427
aVuse
p428
aVtrigger
p429
aVmodifi
p430
aVstructur
p431
aVdatabas
p432
aVway
p433
aVprefer
p434
aVprogram
p435
aVenviron
p436
aVnet
p437
aVc#
p438
aVid
p439
aVabl
p440
aVsupport
p441
aVsql
p442
aVserver
p443
aVsp
p444
aVnewer
p445
aVapplic
p446
aVbolt-on
p447
aVdata
p448
aVvisual
p449
aVcompani
p450
aVproduct
p451
aVcustom
p452
aVbase
p453
aVthousand
p454
aVdont
p455
aVwant
p456
aVput
p457
aVrequir
p458
aVmodifi
p459
aVthird-parti
p460
aVvendor
p461
aVtabl
p462
aVeveri
p463
aVinstal
p464
aV"chang
p465
aVtable"
p466
aVmean
p467
aVchang
p468
aVtabl
p469
aVdata
p470
aVchang
p471
aVtabl
p472
aVstructur
p473
aVultim
p474
aVchang
p475
aVtrigger
p476
aVevent
p477
aVapplic
p478
aVcheck
p479
aVchang
p480
aVinterv
p481
aVbest
p482
aVcours
p483
aVaction
p484
aVrequir
p485
aVtrigger
p486
aVschema
p487
aVmodif
p488
aVsql
p489
aVserver
p490
aVseem
p491
aVuse
p492
aVbinary_checksum
p493
aVfunction
p494
aVt-sql
p495
aVway
p496
aVplan
p497
aVimplement
p498
aVeveri
p499
aVx
p500
aVsecond
p501
aVqueri
p502
aVcompar
p503
aVstore
p504
aVvalu
p505
aVvalu
p506
aVchang
p507
aVtabl
p508
aVrow
p509
aVrow
p510
aVuse
p511
aVqueri
p512
aVcompar
p513
aVreturn
p514
aVchecksum
p515
aVstore
p516
aVvalu
p517
aa(lp518
Vreliabl
p519
aVtimer
p520
aVconsol
p521
aVapplic
p522
aVawar
p523
aVnet
p524
aVtimer
p525
aVtype
p526
aVcompar
p527
aVtimer
p528
aVclass
p529
aVnet
p530
aVframework
p531
aVclass
p532
aVlibrari
p533
aVchosen
p534
aVthread
p535
aVtimer
p536
aVtype
p537
aVdrift
p538
aVmain
p539
aVthread
p540
aVbusi
p541
aVneed
p542
aVreliabl
p543
aVway
p544
aVtimer
p545
aVwork
p546
aVcontrol
p547
aVtimer
p548
aVput
p549
aVthread
p550
aVtick
p551
aVwork
p552
aVbegin
p553
aVcomplet
p554
aVparent
p555
aVthread
p556
aVbusi
p557
aVissu
p558
aVtimer
p559
aVconsol
p560
aVapplic
p561
aVtimer
p562
aVtick
p563
aVthread
p564
aVmain
p565
aVthread
p566
aVanyth
p567
aVapplic
p568
aVtri
p569
aVad
p570
aVloop
p571
aVmain
p572
aVthread
p573
aVbusi
p574
aVtimer
p575
aa(lp576
Vbest
p577
aVway
p578
aVplugin
p579
aVphp
p580
aVapplic
p581
aVstart
p582
aVnew
p583
aVweb
p584
aVapplic
p585
aVphp
p586
aVtime
p587
aVwant
p588
aVcreat
p589
aVsometh
p590
aVpeopl
p591
aVextend
p592
aVuse
p593
aVplugin
p594
aVinterfac
p595
aVwrite
p596
aVhook
p597
aVcode
p598
aVplugin
p599
aVattach
p600
aVspecif
p601
aVevent
p602
aa(lp603
Vmultipl
p604
aVsubmit
p605
aVbutton
p606
aVhtml
p607
aVform
p608
aVcreat
p609
aVwizard
p610
aVhtml
p611
aVform
p612
aVbutton
p613
aVgoe
p614
aVgoe
p615
aVsinc
p616
aVbutton
p617
aVmarkup
p618
aVpress
p619
aVenter
p620
aVuse
p621
aVbutton
p622
aVsubmit
p623
aVform
p624
aVexampl
p625
aVdecid
p626
aVbutton
p627
aVuse
p628
aVsubmit
p629
aVform
p630
aVuser
p631
aVpress
p632
aVenter
p633
aVway
p634
aVpress
p635
aVenter
p636
aVwizard
p637
aVmove
p638
aVnext
p639
aVpage
p640
aVpreviou
p641
aVuse
p642
aa(lp643
Vdistinct
p644
aVorder
p645
aVlist
p646
aVname
p647
aVdatat
p648
aVuse
p649
aVlinq
p650
aVcolumn
p651
aVwant
p652
aVcollect
p653
aVuniqu
p654
aVname
p655
aVorder
p656
aValphabet
p657
aVqueri
p658
aVignor
p659
aVorder
p660
aVclaus
p661
aVenforc
p662
aa(lp663
Vpage
p664
aVcollect
p665
aVlinq
p666
aVpage
p667
aVcollect
p668
aVlinq
p669
aa(lp670
Vexist
p671
aVcomment
p672
aVrdoc
p673
aVrubi
p674
aVive
p675
aVcomment
p676
aVwant
p677
aVrdoc
p678
aVcomment
p679
aVformat
p680
aVappropri
p681
aVview
p682
aVuse
p683
aVanyon
p684
aVstart
p685
aVunderstand
p686
aVuse
p687
aVrdoc
p688
aa(lp689
Vsubclips
p690
aVaptana
p691
aVwork
p692
aVnewest
p693
aVreleas
p694
aVsubvers
p695
aVversion
p696
aVsubclips
p697
aVcurrent
p698
aVavail
p699
aVaptana
p700
aVautomag
p701
aVplugin
p702
aVmanag
p703
aVwork
p704
aVnewest
p705
aVversion
p706
aVsubvers
p707
aVsubclips
p708
aVwebsit
p709
aVhowev
p710
aVeclips
p711
aVad
p712
aVnew
p713
aVremot
p714
aVupdat
p715
aVsite
p716
aVupdat
p717
aVmanag
p718
aVtri
p719
aVinstal
p720
aVtold
p721
aVneed
p722
aVmylyn
p723
aVmuch
p724
aVsearch
p725
aVfound
p726
aVmylyn
p727
aVad
p728
aVnew
p729
aVremot
p730
aVupdat
p731
aVsite
p732
aVupdat
p733
aVmanag
p734
aVtri
p735
aVinstal
p736
aVtold
p737
aVneed
p738
aVorgeclipseui
p739
aVequival
p740
aVlook
p741
aVconfigur
p742
aVdetail
p743
aVaptana
p744
aVlook
p745
aVbuilt
p746
aVeclips
p747
aVanyon
p748
aVway
p749
aVupgrad
p750
aVversion
p751
aVeclips
p752
aVaptana
p753
aVbuilt
p754
aVway
p755
aVsubclips
p756
aVwork
p757
aVnewest
p758
aVversion
p759
aVsubvers
p760
aVisnt
p761
aVnecessarili
p762
aV"programming"
p763
aVquestion
p764
aVhope
p765
aVok
p766
aVsinc
p767
aVhighli
p768
aVrelev
p769
aVprogram
p770
aVexperi
p771
aa(lp772
Vsqlstatementexecut
p773
aVmultipl
p774
aVqueri
p775
aVstatement
p776
aVive
p777
aVdatabas
p778
aVgener
p779
aVscript
p780
aVsql
p781
aVwant
p782
aVexecut
p783
aVadob
p784
aVair
p785
aVapplic
p786
aVexecut
p787
aVadob
p788
aVair
p789
aVuse
p790
aVmethod
p791
aVerror
p792
aVgener
p793
aVhowev
p794
aVexist
p795
aVseem
p796
aVlook
p797
aVqueri
p798
aVsemicolon-
p799
aVremov
p800
aVqueri
p801
aVfail
p802
aVway
p803
aVcall
p804
aVmultipl
p805
aVqueri
p806
aVstatement
p807
aa(lp808
Vflat
p809
aVfile
p810
aVdatabas
p811
aVbest
p812
aVpractic
p813
aVcreat
p814
aVflat
p815
aVfile
p816
aVdatabas
p817
aVstructur
p818
aVphp
p819
aVlot
p820
aVmatur
p821
aVphp
p822
aVflat
p823
aVfile
p824
aVframework
p825
aVattempt
p826
aVimplement
p827
aVsql-like
p828
aVqueri
p829
aVsyntax
p830
aVtop
p831
aVpurpos
p832
aVcase
p833
aVuse
p834
aVdatabas
p835
aVpoint
p836
aVeleg
p837
aVtrick
p838
aVgood
p839
aVperform
p840
aVfeatur
p841
aVsmall
p842
aVcode
p843
aVoverhead
p844
aVwant
p845
aVproblem
p846
aVplace
p847
aa(lp848
Vgettimeofday
p849
aVguarante
p850
aVmicrosecond
p851
aVresolut
p852
aVport
p853
aVgame
p854
aVorigin
p855
aVwin
p856
aVapi
p857
aVlinux
p858
aVport
p859
aVos
p860
aVx
p861
aVport
p862
aVwin
p863
aVport
p864
aVlinux
p865
aVimplement
p866
aVusecond
p867
aVsinc
p868
aVprocess
p869
aVstart
p870
aVcoupl
p871
aVconstant
p872
aVfrequenc
p873
aVwork
p874
aVmachin
p875
aVbit
p876
aVvariabl
p877
aVcontain
p878
aVsinc
p879
aVprogram
p880
aVstart
p881
aVportabl
p882
aVdont
p883
aVwant
p884
aVdiscov
p885
aVwork
p886
aVdiffer
p887
aVkernel
p888
aVcompil
p889
aVcertain
p890
aVway
p891
aVanyth
p892
aVfine
p893
aVnon-port
p894
aVsometh
p895
aVlinux
p896
aVhowev
p897
aa(lp898
Vgood
p899
aVbranch
p900
aVmerg
p901
aVtutori
p902
aVtortoisesvn
p903
aVrealli
p904
aVgood
p905
aVtutori
p906
aVexplain
p907
aVbranch
p908
aVmerg
p909
aVapach
p910
aVsubvers
p911
aVspecif
p912
aVtortoisesvn
p913
aVclient
p914
aa(lp915
Vanatomi
p916
aV"memori
p917
aVleak"
p918
aVnet
p919
aVperspect
p920
aVmemori
p921
aVleak
p922
aVdetermin
p923
aVapplic
p924
aVleak
p925
aVeffect
p926
aVprevent
p927
aVmemori
p928
aVleak
p929
aVapplic
p930
aVmemori
p931
aVleak
p932
aVprocess
p933
aVexit
p934
aVkill
p935
aVmemori
p936
aVleak
p937
aVapplic
p938
aVaffect
p939
aVprocess
p940
aVsystem
p941
aVprocess
p942
aVcomplet
p943
aVunmanag
p944
aVcode
p945
aVaccess
p946
aVcom
p947
aVinterop
p948
aVand/or
p949
aVp/invok
p950
aVanswer
p951
aVquestion
p952
aVincomplet
p953
aVthink
p954
aa(lp955
Vbest
p956
aVsubvers
p957
aVclient
p958
aVwindow
p959
aVvista
p960
aVbit
p961
aVive
p962
aVuse
p963
aVtortoisesvn
p964
aVwindow
p965
aVenviron
p966
aVquit
p967
aVtime
p968
aVseem
p969
aVfeature-complet
p970
aVnice
p971
aVintegr
p972
aVwindow
p973
aVshell
p974
aVimportantli
p975
aVfairli
p976
aVpainless
p977
aVteach
p978
aVcolleagu
p979
aVlittl
p980
aVexperi
p981
aVsourc
p982
aVcontrol
p983
aVhowev
p984
aVsinc
p985
aVmove
p986
aVwindow
p987
aVvista
p988
aVbit
p989
aVtortois
p990
aVbuggi
p991
aVseem
p992
aVcaus
p993
aVlot
p994
aVexplorerex
p995
aVabnorm
p996
aVcrash
p997
aVolder
p998
aVversion
p999
aVsoftwar
p1000
aVlatest
p1001
aVversion
p1002
aVbuild
p1003
aVcuriou
p1004
aVanyon
p1005
aVsuggest
p1006
aVsubvers
p1007
aVclient
p1008
aVwindow
p1009
aVspecif
p1010
aVvista
p1011
aVbit
p1012
aVuse
p1013
aVvarieti
p1014
aVtext
p1015
aVeditor
p1016
aVuse
p1017
aVvisual
p1018
aVstudio
p1019
aVdreamweav
p1020
aVsvn
p1021
aVideal
p1022
aVheard
p1023
aVgreat
p1024
aVthing
p1025
aVcornerston
p1026
aVlove
p1027
aVsometh
p1028
aVsimilar
p1029
aVwindow
p1030
aVexist
p1031
aVim
p1032
aVcorrel
p1033
aVvista/explor
p1034
aVproblem
p1035
aVtortois
p1036
aVnormal
p1037
aVoccur
p1038
aVim
p1039
aVuse
p1040
aVfunction
p1041
aVtortois
p1042
aVsometim
p1043
aVbring
p1044
aV"merge"
p1045
aVscreen
p1046
aVcaus
p1047
aVgui
p1048
aVstart
p1049
aVact
p1050
aVstrang
p1051
aVeventu
p1052
aVhang
p1053
aVcrash
p1054
aVim
p1055
aVinstal
p1056
aVmayb
p1057
aVfix
p1058
aVissu
p1059
aa(lp1060
Vdecod
p1061
aVt-sql
p1062
aVcast
p1063
aVc#/vbnet
p1064
aVrecent
p1065
aVsite
p1066
aVdelug
p1067
aVresurg
p1068
aVasprox
p1069
aVbot
p1070
aVsql
p1071
aVinject
p1072
aVattack
p1073
aVdetail
p1074
aVattack
p1075
aVattempt
p1076
aVexecut
p1077
aVsql
p1078
aVcode
p1079
aVencod
p1080
aVt-sql
p1081
aVcommand
p1082
aVascii
p1083
aVencod
p1084
aVbinari
p1085
aVstring
p1086
aVlook
p1087
aVsometh
p1088
aVabl
p1089
aVdecod
p1090
aVsql
p1091
aVlittl
p1092
aVwari
p1093
aVsinc
p1094
aVdidnt
p1095
aVexactli
p1096
aVtime
p1097
aVtri
p1098
aVwrite
p1099
aVsimpl
p1100
aVdecod
p1101
aVtool
p1102
aVdecod
p1103
aVtype
p1104
aVtext
p1105
aVtouch
p1106
aVsql
p1107
aVserver
p1108
aVmain
p1109
aVpart
p1110
aVneed
p1111
aVdecod
p1112
aVive
p1113
aVtri
p1114
aVcommand
p1115
aVluck
p1116
aVanybodi
p1117
aVsuggest
p1118
aVproper
p1119
aVway
p1120
aVtranslat
p1121
aVencod
p1122
aVuse
p1123
aVsql
p1124
aVserver
p1125
aVpossibl
p1126
aVill
p1127
aVvbnet
p1128
aVcode
p1129
aVsinc
p1130
aVim
p1131
aVfamiliar
p1132
aVokay
p1133
aVim
p1134
aVsure
p1135
aVim
p1136
aVmiss
p1137
aVsometh
p1138
aVim
p1139
aVsinc
p1140
aVinput
p1141
aVbasic
p1142
aVstring
p1143
aVstart
p1144
aVsnippet
p1145
aVencod
p1146
aVportion
p1147
aVc
p1148
aVtranslat
p1149
aVdecla
p1150
aVattempt
p1151
aVreturn
p1152
aVexact
p1153
aVthing
p1154
aVput
p1155
aVsinc
p1156
aVconvert
p1157
aVcharact
p1158
aVbyte
p1159
aVrealiz
p1160
aVneed
p1161
aVpars
p1162
aVcharact
p1163
aVbyte
p1164
aVmanual
p1165
aVsinc
p1166
aVdont
p1167
aVmethod
p1168
aVlittl
p1169
aVdecod
p1170
aVlook
p1171
aVsometh
p1172
aVthing
p1173
aVlook
p1174
aVgood
p1175
aVcoupl
p1176
aVpair
p1177
aVloop
p1178
aVbalk
p1179
aV"c"
p1180
aVpair
p1181
aVstring
p1182
aVincorrect
p1183
aVformat
p1184
aVinterestingli
p1185
aVstep
p1186
aVdebugg
p1187
aVgetstr
p1188
aVmethod
p1189
aVbyte
p1190
aVarray
p1191
aVabl
p1192
aVpars
p1193
aVpoint
p1194
aV"-+"
p1195
aVresult
p1196
aVanybodi
p1197
aVhelp
p1198
aVfigur
p1199
aVim
p1200
aVmiss
p1201
aVneed
p1202
aV"direct
p1203
aVcast"
p1204
aVbyte
p1205
aVattempt
p1206
aVpars
p1207
aa(lp1208
Vaspnet
p1209
aVsite
p1210
aVmap
p1211
aVanyon
p1212
aVexperi
p1213
aVcreat
p1214
aVsql-base
p1215
aVaspnet
p1216
aVsite-map
p1217
aVprovid
p1218
aVive
p1219
aVdefault
p1220
aVfile
p1221
aVwork
p1222
aVproperli
p1223
aVcontrol
p1224
aVill
p1225
aVneed
p1226
aVway
p1227
aVuser
p1228
aVsite
p1229
aVcreat
p1230
aVmodifi
p1231
aVpage
p1232
aVdynam
p1233
aVneed
p1234
aVtie
p1235
aVpage
p1236
aVview
p1237
aVpermiss
p1238
aVstandard
p1239
aVmembership
p1240
aVsystem
p1241
aVid
p1242
aVadvic
p1243
aVarticl
p1244
aVvideo
p1245
aVthank
p1246
aa(lp1247
Vjava
p1248
aVlib
p1249
aVapp
p1250
aVconvert
p1251
aVcsv
p1252
aVxml
p1253
aVfile
p1254
aVexist
p1255
aVapplic
p1256
aVlibrari
p1257
aVjava
p1258
aVconvert
p1259
aVcsv
p1260
aVdata
p1261
aVfile
p1262
aVxml
p1263
aVfile
p1264
aVxml
p1265
aVtag
p1266
aVprovid
p1267
aVpossibl
p1268
aVrow
p1269
aVcontain
p1270
aVcolumn
p1271
aVhead
p1272
aa(lp1273
Vaccess
p1274
aVobject
p1275
aVproperti
p1276
aVobject
p1277
aVmethod
p1278
aV"purist"
p1279
aV"correct"
p1280
aVway
p1281
aVaccess
p1282
aVobject
p1283
aVproperti
p1284
aVobject
p1285
aVmethod
p1286
aVgetter/sett
p1287
aVmethod
p1288
aVoutsid
p1289
aVobject
p1290
aVuse
p1291
aVgetter/sett
p1292
aVjava
p1293
aVphp
p1294
aVjava
p1295
aVphp
p1296
aVforgiv
p1297
aVjava
p1298
aVlittl
p1299
aVyear
p1300
aVsinc
p1301
aVprogram
p1302
aVjava
p1303
aVedit
p1304
aVseem
p1305
aVpeopl
p1306
aVassum
p1307
aVtalk
p1308
aVprivat
p1309
aVprotect
p1310
aVvariables/properti
p1311
aVlearn
p1312
aVoo
p1313
aVtaught
p1314
aVuse
p1315
aVgetters/sett
p1316
aVeveri
p1317
aVsingl
p1318
aVproperti
p1319
aVpublic
p1320
aVactual
p1321
aVtold
p1322
aVvariable/properti
p1323
aVpublic
p1324
aVstart
p1325
aVfals
p1326
aVassumpt
p1327
aVpeopl
p1328
aVanswer
p1329
aVquestion
p1330
aVmayb
p1331
aVpublic
p1332
aVproperti
p1333
aVdont
p1334
aVneed
p1335
aVgetter
p1336
aVsetter
p1337
aVgoe
p1338
aVtaught
p1339
aVtalk
p1340
aVmayb
p1341
aVneed
p1342
aVdiscuss
p1343
aVprobabl
p1344
aVgood
p1345
aVtopic
p1346
aVdiffer
p1347
aVquestion
p1348
aa(lp1349
Vexport
p1350
aVdata
p1351
aVsql
p1352
aVserver
p1353
aVmysql
p1354
aVive
p1355
aVbang
p1356
aVhead
p1357
aVsql
p1358
aVserver
p1359
aVtri
p1360
aVlot
p1361
aVdata
p1362
aVive
p1363
aVdatabas
p1364
aVnearli
p1365
aVtabl
p1366
aVneed
p1367
aVturn
p1368
aVmysql
p1369
aVdatabas
p1370
aVcall
p1371
aVuse
p1372
aVbcp
p1373
aVunfortun
p1374
aVdoesnt
p1375
aVproduc
p1376
aVvalid
p1377
aVcsv
p1378
aVstring
p1379
aVarent
p1380
aVencapsul
p1381
aVcant
p1382
aVdeal
p1383
aVrow
p1384
aVstring
p1385
aVcomma
p1386
aVwhatev
p1387
aVuse
p1388
aVdelimit
p1389
aVhand
p1390
aVwrite
p1391
aVcreat
p1392
aVtabl
p1393
aVstatement
p1394
aVobvious
p1395
aVcsv
p1396
aVdoesnt
p1397
aVtell
p1398
aVanyth
p1399
aVdata
p1400
aVtype
p1401
aVtool
p1402
aVconnect
p1403
aVsql
p1404
aVserver
p1405
aVmysql
p1406
aVcopi
p1407
aVview
p1408
aVstore
p1409
aVprocedur
p1410
aVtrigger
p1411
aVetc
p1412
aVisnt
p1413
aVhard
p1414
aVcopi
p1415
aVtabl
p1416
aVuse
p1417
aVbase
p1418
aVtype
p1419
aVdb
p1420
aVanybodi
p1421
aVtool
p1422
aVdont
p1423
aVmind
p1424
aVmani
p1425
aVassumpt
p1426
aVsimplif
p1427
aVoccur
p1428
aVsupport
p1429
aVinteg
p1430
aVfloat
p1431
aVdatetim
p1432
aVstring
p1433
aVlot
p1434
aVprune
p1435
aVnormalis
p1436
aVetc
p1437
aVdont
p1438
aVcare
p1439
aVkey
p1440
aVrelationship
p1441
aVanyth
p1442
aVneed
p1443
aViniti
p1444
aVset
p1445
aVdata
p1446
aVfast!
p1447
aa(lp1448
Vxsd
p1449
aVdataset
p1450
aVignor
p1451
aVforeign
p1452
aVkey
p1453
aVpretti
p1454
aVstandard
p1455
aVtabl
p1456
aVsetup
p1457
aVcurrent
p1458
aVapplic
p1459
aVuse
p1460
aVnet
p1461
aVxsd
p1462
aVfeatur
p1463
aVtabl
p1464
aVconsist
p1465
aVstandard
p1466
aVcontract
p1467
aVinform
p1468
aVcolumn
p1469
aVcolumn
p1470
aVforeign
p1471
aVkey
p1472
aVtabl
p1473
aVstore
p1474
aVbasic
p1475
aVsetup
p1476
aVfunction
p1477
aVsql
p1478
aVserver
p1479
aVuse
p1480
aVxsd
p1481
aVtool
p1482
aVdrag
p1483
aVtabl
p1484
aVauto
p1485
aVdetects/cr
p1486
aVforeign
p1487
aVkey
p1488
aVtabl
p1489
aVwork
p1490
aVgreat
p1491
aVim
p1492
aVmain
p1493
aVpage
p1494
aVview
p1495
aVcontract
p1496
aVdata
p1497
aVhowev
p1498
aVadministr
p1499
aVpage
p1500
aVmodifi
p1501
aVdepart
p1502
aVdata
p1503
aVtypic
p1504
aVsometh
p1505
aVhowev
p1506
aVpoint
p1507
aVthrown
p1508
aVeffect
p1509
aVforeign
p1510
aVkey
p1511
aVrefer
p1512
aVbroken
p1513
aVim
p1514
aVguess
p1515
aVsinc
p1516
aVdont
p1517
aVfill
p1518
aVfix
p1519
aVproblem
p1520
aVsimpli
p1521
aVremov
p1522
aVforeign
p1523
aVkey
p1524
aVxsd
p1525
aVthing
p1526
aVwork
p1527
aVfine
p1528
aVaddit
p1529
aVintegr
p1530
aVcheck
p1531
aVxsd
p1532
aVschema
p1533
aVmatch
p1534
aVsql
p1535
aVschema
p1536
aVdatabas
p1537
aVnice
p1538
aa(lp1539
Vcompress
p1540
aV/
p1541
aVdecompress
p1542
aVfolder
p1543
aVfile
p1544
aVanyon
p1545
aVgood
p1546
aVway
p1547
aVcompress
p1548
aVdecompress
p1549
aVfile
p1550
aVfolder
p1551
aVc#
p1552
aVquickli
p1553
aVhandl
p1554
aVlarg
p1555
aVfile
p1556
aVnecessari
p1557
aa(lp1558
Vtrack
p1559
aVfile
p1560
aVdownload
p1561
aVwebsit
p1562
aVplay
p1563
aVmp
p1564
aVflash
p1565
aVplayer
p1566
aVuser
p1567
aVclick
p1568
aVplay
p1569
aVflash
p1570
aVplayer
p1571
aVautomat
p1572
aVdownload
p1573
aVmp
p1574
aVstart
p1575
aVplay
p1576
aVeasi
p1577
aVway
p1578
aVtrack
p1579
aVmani
p1580
aVtime
p1581
aVparticular
p1582
aVsong
p1583
aVclip
p1584
aVbinari
p1585
aVfile
p1586
aVdownload
p1587
aVplay
p1588
aVlink
p1589
aVlink
p1590
aVactual
p1591
aVmp
p1592
aVfile
p1593
aVjavascript
p1594
aVcode
p1595
aVpop
p1596
aVplayer
p1597
aVlatter
p1598
aVeasili
p1599
aVlog
p1600
aVcode
p1601
aVtrack
p1602
aVnumber
p1603
aVhit
p1604
aVformer
p1605
aVyoull
p1606
aVneed
p1607
aVsometh
p1608
aVtrack
p1609
aVweb
p1610
aVserver
p1611
aVlog
p1612
aVdistinct
p1613
aVhost
p1614
aVplan
p1615
aVwebal
p1616
aVnice
p1617
aVjavascript
p1618
aVcode
p1619
aVanswer
p1620
aVhowev
p1621
aVnice
p1622
aVtrack
p1623
aVdownload
p1624
aVuse
p1625
aVmethod
p1626
aVswitch
p1627
aVhost
p1628
aa(lp1629
Vsync
p1630
aVsvn
p1631
aVrevis
p1632
aVnumber
p1633
aVaspnet
p1634
aVweb
p1635
aVsite
p1636
aVstack
p1637
aVoverflow
p1638
aVsubvers
p1639
aVversion
p1640
aVnumber
p1641
aVbottom
p1642
aVsvn
p1643
aVrevis
p1644
aVwant
p1645
aVuse
p1646
aVautomat
p1647
aVversion
p1648
aVnet
p1649
aVweb
p1650
aVsite/appl
p1651
aVwindow
p1652
aVform
p1653
aVwpd
p1654
aVprojects/solut
p1655
aVimplement
p1656
aa(lp1657
Vembed
p1658
aVwindow
p1659
aVmedia
p1660
aVplayer
p1661
aVbrowser
p1662
aVuse
p1663
aVwmv
p1664
aVvideo
p1665
aVintern
p1666
aVsite
p1667
aVembed
p1668
aVweb
p1669
aVsite
p1670
aVwork
p1671
aVquit
p1672
aVinternet
p1673
aVexplor
p1674
aVfirefox
p1675
aVive
p1676
aVfound
p1677
aVway
p1678
aVwork
p1679
aVfirefox
p1680
aVstop
p1681
aVwork
p1682
aVinternet
p1683
aVexplor
p1684
aVwant
p1685
aVuse
p1686
aVsilverlight
p1687
aVespeci
p1688
aVsinc
p1689
aVcannot
p1690
aVsure
p1691
aVclient
p1692
aVwindow
p1693
aVxp
p1694
aVwindow
p1695
aVmedia
p1696
aVplayer
p1697
aVinstal
p1698
aVsort
p1699
aVunivers
p1700
aVcode
p1701
aVemb
p1702
aVwmp
p1703
aVinternet
p1704
aVexplor
p1705
aVfirefox
p1706
aVneed
p1707
aVimplement
p1708
aVuser-agent-detect
p1709
aVdeliv
p1710
aVdiffer
p1711
aVhtml
p1712
aVdiffer
p1713
aVbrowser
p1714
aa(lp1715
Vversion
p1716
aVsql
p1717
aVserver
p1718
aVdatabas
p1719
aVive
p1720
aVwant
p1721
aVdatabas
p1722
aVversion
p1723
aVcontrol
p1724
aVanyon
p1725
aVadvic
p1726
aVrecommend
p1727
aVarticl
p1728
aVstart
p1729
aVill
p1730
aVwant
p1731
aVleast
p1732
aVdata
p1733
aValumb
p1734
aVmention
p1735
aVuser
p1736
aVtype
p1737
aVadministr
p1738
aVill
p1739
aVwant
p1740
aVlarg
p1741
aVcollect
p1742
aVgener
p1743
aVtest
p1744
aVdata
p1745
aVperform
p1746
aVmeasur
p1747
aa(lp1748
Vprint
p1749
aVhtml
p1750
aVdocument
p1751
aVweb
p1752
aVservic
p1753
aVwant
p1754
aVprint
p1755
aVhtml
p1756
aVc#
p1757
aVweb
p1758
aVservic
p1759
aVweb
p1760
aVbrowser
p1761
aVcontrol
p1762
aVoverkil
p1763
aVfunction
p1764
aVservic
p1765
aVenviron
p1766
aVfunction
p1767
aVsystem
p1768
aVtight
p1769
aVsecur
p1770
aVconstraint
p1771
aVsort
p1772
aVfree
p1773
aVnet
p1774
aVlibrari
p1775
aVsupport
p1776
aVprint
p1777
aVbasic
p1778
aVhtml
p1779
aVpage
p1780
aVcode
p1781
aVproperli
p1782
aVwork
p1783
aVfine
p1784
aVcall
p1785
aVui-typ
p1786
aVthread
p1787
aVcall
p1788
aVservice-typ
p1789
aVthread
p1790
aVchang
p1791
aVyield
p1792
aVie
p1793
aVscript
p1794
aVerror
p1795
aVerror
p1796
aVdialogarguments___ie_printtyp
p1797
aVnull
p1798
aVobject
p1799
aVurl
p1800
aVres//ieframedll/previewdlg
p1801
aVsmall
p1802
aVempti
p1803
aVprint
p1804
aVpreview
p1805
aVdialog
p1806
aa(lp1807
Vannot
p1808
aVyoutub
p1809
aVvideo
p1810
aVprogrammat
p1811
aVwant
p1812
aVabl
p1813
aVdisplay
p1814
aVnormal
p1815
aVyoutub
p1816
aVvideo
p1817
aVoverlaid
p1818
aVannot
p1819
aVconsist
p1820
aVcolor
p1821
aVrectangl
p1822
aVframe
p1823
aVrequir
p1824
aVprogramat
p1825
aVyoutub
p1826
aVannot
p1827
aVrequir
p1828
aVuse
p1829
aVfront
p1830
aVend
p1831
aVcreat
p1832
aVhand
p1833
aVwant
p1834
aVabl
p1835
aVgener
p1836
aVbest
p1837
aVway
p1838
aVidea
p1839
aVbuild
p1840
aVflash
p1841
aVplayer
p1842
aVew
p1843
aVsomehow
p1844
aVdraw
p1845
aVyoutub
p1846
aVflash
p1847
aVplayer
p1848
aVwork
p1849
aVrevers
p1850
aVengin
p1851
aVhijack
p1852
aVyoutub
p1853
aVannot
p1854
aVsystem
p1855
aVmess
p1856
aVlocal
p1857
aVfile
p1858
aVredirect
p1859
aVattempt
p1860
aVdownload
p1861
aVannot
p1862
aVuse
p1863
aVgreasemonkey
p1864
aVfirefox
p1865
aVplugin
p1866
aVidea
p1867
aVdoesnt
p1868
aVcount
p1869
aVdownload
p1870
aVvideo
p1871
aa(lp1872
Verror_log
p1873
aVvirtual
p1874
aVhost
p1875
aVlinux
p1876
aVserver
p1877
aVapach
p1878
aVphp
p1879
aVmultipl
p1880
aVvirtual
p1881
aVhost
p1882
aVsepar
p1883
aVlogfil
p1884
aVeveryth
p1885
aVthing
p1886
aVcannot
p1887
aVseem
p1888
aVsepar
p1889
aVvirtual
p1890
aVhost
p1891
aVphp
p1892
aVoverrid
p1893
aVset
p1894
aVseem
p1895
aVanyth
p1896
aVoverlook
p1897
aVsometh
p1898
aVway
p1899
aVsepar
p1900
aVphp
p1901
aVvirtual
p1902
aVhost
p1903
aa(lp1904
Vfunction
p1905
aVcreat
p1906
aVcolor
p1907
aVwheel
p1908
aVsometh
p1909
aVive
p1910
aVpseudo-solv
p1911
aVmani
p1912
aVtime
p1913
aVquit
p1914
aVfound
p1915
aVsolut
p1916
aVstuck
p1917
aVproblem
p1918
aVway
p1919
aVgener
p1920
aVn
p1921
aVcolor
p1922
aVdistinguish
p1923
aVpossibl
p1924
aVn
p1925
aVparamet
p1926
aa(lp1927
Vfloat
p1928
aVpoint
p1929
aVnumber
p1930
aVpars
p1931
aVcatch
p1932
aValgorithm
p1933
aVfun
p1934
aVpart
p1935
aVmulti-cultur
p1936
aVprogram
p1937
aVnumber
p1938
aVformat
p1939
aVamerican
p1940
aVuse
p1941
aVgerman
p1942
aVuse
p1943
aVfrench
p1944
aVuse
p1945
aVapproach
p1946
aVstring
p1947
aVpars
p1948
aVbackward
p1949
aVencount
p1950
aVsepar
p1951
aVuse
p1952
aVdecim
p1953
aVsepar
p1954
aVobviou
p1955
aVflaw
p1956
aVinterpret
p1957
aVapproach
p1958
aVstring
p1959
aVcontain
p1960
aVdiffer
p1961
aVnon-numer
p1962
aVcharact
p1963
aVuse
p1964
aVlast
p1965
aVdecim
p1966
aVsepar
p1967
aVdiscard
p1968
aVother
p1969
aVcheck
p1970
aVoccur
p1971
aVdiscard
p1972
aVcheck
p1973
aVdigit
p1974
aVye
p1975
aVdiscard
p1976
aVotherwis
p1977
aVuse
p1978
aVdecim
p1979
aVsepar
p1980
aVobviou
p1981
aV"best
p1982
aVsolution"
p1983
aVdetect
p1984
aVuser
p1985
aVcultur
p1986
aVbrowser
p1987
aVwork
p1988
aVfrenchman
p1989
aVuse
p1990
aVen-u
p1991
aVwindows/brows
p1992
aVnet
p1993
aVframework
p1994
aVcontain
p1995
aVmythic
p1996
aVblack
p1997
aVmagic
p1998
aVfloat
p1999
aVpoint
p2000
aVparser
p2001
aVtri
p2002
aVauto-detect
p2003
aVnumber
p2004
aVformat
p2005
aa(lp2006
Vupgrad
p2007
aVsql
p2008
aVserver
p2009
aVye
p2010
aVexist
p2011
aVcopi
p2012
aVabsurd
p2013
aVstipul
p2014
aVbest
p2015
aVway
p2016
aVmigrat
p2017
aVdirect
p2018
aVpath
p2019
aVdocument
p2020
aVive
p2021
aVfound
p2022
aVdeal
p2023
aVupgrad
p2024
aVforget
p2025
aVnativ
p2026
aVupgrad
p2027
aVutil
p2028
aVscript
p2029
aVobject
p2030
aVdata
p2031
aVtri
p2032
aVrecreat
p2033
aVscratch
p2034
aVattempt
p2035
aVupgrad
p2036
aVweekend
p2037
aVserver
p2038
aVissu
p2039
aVpush
p2040
aVtill
p2041
aVnext
p2042
aVidea
p2043
aVwelcom
p2044
aVcours
p2045
aVweek
p2046
aVupdat
p2047
aVend
p2048
aVdatabas
p2049
aVquestion
p2050
aVmaster
p2051
aVexecut
p2052
aVmaster
p2053
aVoledb
p2054
aVprovid
p2055
aVconnect
p2056
aVuse
p2057
aVstandalon
p2058
aVcreat
p2059
aVdt
p2060
aVpackag
p2061
aVuse
p2062
aVconnect
p2063
aVsuccess
p2064
aVcopi
p2065
aVtabl
p2066
aVnew
p2067
aVdatabas
p2068
aVuse
p2069
aVuse
p2070
aVenterpris
p2071
aVmanag
p2072
aVscript
p2073
aVdatabas
p2074
aVindex
p2075
aVtrigger
p2076
aVsql
p2077
aVfile
p2078
aVexecut
p2079
aVsql
p2080
aVfile
p2081
aVnew
p2082
aVcopi
p2083
aVdatabas
p2084
aVmanag
p2085
aVstudio
p2086
aVuse
p2087
aVenterpris
p2088
aVmanag
p2089
aVscript
p2090
aVstore
p2091
aVprocedur
p2092
aVexecut
p2093
aVfile
p2094
aVdatabas
p2095
aVsever
p2096
aVdozen
p2097
aVsproc
p2098
aVissu
p2099
aVincompat
p2100
aVmainli
p2101
aVcorrect
p2102
aVissu
p2103
aVre-execut
p2104
aVfile
p2105
aVrecreat
p2106
aVlogin
p2107
aVappropri
p2108
aVpermiss
p2109
aVbit
p2110
aVrinse/repeat
p2111
aVcorrect
p2112
aVstore
p2113
aVprocedur
p2114
aVhundr
p2115
aVcorrect
p2116
aVupgrad
p2117
aVgreat
p2118
aVotherwis
p2119
aVabl
p2120
aVuse
p2121
aVmanag
p2122
aVstudio
p2123
aVamaz
p2124
aVdiffer
p2125
aVreport
p2126
aVqueri
p2127
aVsecond
p2128
aVsecond
p2129
aVmodif
p2130
aVnew
p2131
aVindex
p2132
aVanyth
p2133
aVdidnt
p2134
aVkind
p2135
aVimmedi
p2136
aVimprov
p2137
aa(lp2138
Vbest
p2139
aVway
p2140
aVgener
p2141
aVtag
p2142
aVcloud
p2143
aVarray
p2144
aVuse
p2145
aVh
p2146
aVh
p2147
aVsize
p2148
aVarray
p2149
aVwant
p2150
aVgener
p2151
aVtag
p2152
aVcloud
p2153
aVartist
p2154
aVhigher
p2155
aVnumber
p2156
aVenclos
p2157
aVtag
p2158
aVlowest
p2159
aVenclos
p2160
aVtag
p2161
aa(lp2162
Vregist
p2163
aVwindow
p2164
aVprogram
p2165
aVmailto
p2166
aVprotocol
p2167
aVprogrammat
p2168
aVlink
p2169
aVregist
p2170
aVprogram
p2171
aVhandl
p2172
aVevent
p2173
aVprogram
p2174
aVsolut
p2175
aVfound
p2176
aVquick
p2177
aVgoogl
p2178
aVsearch
p2179
aVmanual
p2180
aVneed
p2181
aVautomat
p2182
aVuser
p2183
aVprogram
p2184
aVclick
p2185
aVbutton
p2186
aV"set
p2187
aVdefault
p2188
aVemail
p2189
aVclient"
p2190
aVedit
p2191
aVremov
p2192
aVrefer
p2193
aVdelphi
p2194
aVanswer
p2195
aVindepend
p2196
aVlanguag
p2197
aa(lp2198
Vsql
p2199
aVserver
p2200
aVimplement
p2201
aVmysql
p2202
aVreplac
p2203
aVmysql
p2204
aVuse
p2205
aVproperitari
p2206
aVsql
p2207
aVcommand
p2208
aVwonder
p2209
aVeasili
p2210
aVemul
p2211
aVsql
p2212
aVserver
p2213
aVstart
p2214
aVnew
p2215
aVtransact
p2216
aVlittl
p2217
aVbit
p2218
aVpain
p2219
aVespeci
p2220
aVapplic
p2221
aVtherefor
p2222
aVversion
p2223
aVstatement
p2224
aVwonder
p2225
aVeasi
p2226
aVunivers
p2227
aVway
p2228
aVimplement
p2229
aVfunction
p2230
aVsql
p2231
aVserver
p2232
aa(lp2233
Vdistribut
p2234
aVsourc
p2235
aVcontrol
p2236
aVoption
p2237
aVive
p2238
aVinterest
p2239
aVgit
p2240
aVlast
p2241
aVtime
p2242
aVlook
p2243
aVwindow
p2244
aVsupport
p2245
aVessenti
p2246
aV"run
p2247
aVlinux"
p2248
aVdistribut
p2249
aVsourc
p2250
aVcontrol
p2251
aVtool
p2252
aVwindow
p2253
aa(lp2254
Vcreat
p2255
aVsqlite
p2256
aVdatabas
p2257
aVbase
p2258
aVxsd
p2259
aVdata
p2260
aVset
p2261
aVanybodi
p2262
aVway
p2263
aVcreat
p2264
aVsqlite
p2265
aVdatabas
p2266
aVbase
p2267
aVxsd
p2268
aVpast
p2269
aVive
p2270
aVuse
p2271
aVbasic
p2272
aVsqlite
p2273
aVmanag
p2274
aVwant
p2275
aVfuse
p2276
aVthing
p2277
aVbit
p2278
aVnet
p2279
aVpossibl
p2280
aa(lp2281
Vaccess
p2282
aVremot
p2283
aVform
p2284
aVphp
p2285
aVwant
p2286
aVgather
p2287
aVinfo
p2288
aVuser
p2289
aVlocal
p2290
aVphp
p2291
aVpage
p2292
aVcontrol
p2293
aVuse
p2294
aVinfo
p2295
aVqueri
p2296
aVform
p2297
aVsite
p2298
aVdont
p2299
aVcontrol
p2300
aa(lp2301
Vad
p2302
aVscript
p2303
aVfunction
p2304
aVnet
p2305
aVapplic
p2306
aVlittl
p2307
aVgame
p2308
aVc#
p2309
aVuse
p2310
aVdatabas
p2311
aVback-end
p2312
aVtrade
p2313
aVcard
p2314
aVgame
p2315
aVwant
p2316
aVimplement
p2317
aVfunction
p2318
aVcard
p2319
aVscript
p2320
aVmean
p2321
aVessenti
p2322
aVinterfac
p2323
aVcard
p2324
aVclass
p2325
aVimplement
p2326
aVcontain
p2327
aVfunction
p2328
aVcall
p2329
aVgame
p2330
aVthing
p2331
aVmaintainable/modd
p2332
aVclass
p2333
aVcard
p2334
aVsourc
p2335
aVcode
p2336
aVdatabas
p2337
aVessenti
p2338
aVcompil
p2339
aVuse
p2340
aVadd/chang
p2341
aVcard
p2342
aVill
p2343
aVdatabas
p2344
aVtell
p2345
aVapplic
p2346
aVrefresh
p2347
aVneed
p2348
aVassembl
p2349
aVdeploy
p2350
aVespeci
p2351
aVsinc
p2352
aVtalk
p2353
aVassembl
p2354
aVcard
p2355
aVmean
p2356
aVhundr
p2357
aVassembl
p2358
aVpossibl
p2359
aVregist
p2360
aVclass
p2361
aVsourc
p2362
aVfile
p2363
aVinstanti
p2364
aVetc
p2365
aVlanguag
p2366
aVc#
p2367
aVextra
p2368
aVbonu
p2369
aVpossibl
p2370
aVwrite
p2371
aVscript
p2372
aVnet
p2373
aVlanguag
p2374
aa(lp2375
Vgtk
p2376
aVimplement
p2377
aVmessagebox
p2378
aVtri
p2379
aVimplement
p2380
aVwin
p2381
aVuse
p2382
aVgtk
p2383
aVapp
p2384
aVuse
p2385
aVsdl/opengl
p2386
aVisnt
p2387
aVgtk
p2388
aVapp
p2389
aVhandl
p2390
aVinitialis
p2391
aVsort
p2392
aVstuff
p2393
aVinsid
p2394
aVfunction
p2395
aVmean
p2396
aVexperienc
p2397
aVgtk
p2398
aVprogramm
p2399
aVrealis
p2400
aVim
p2401
aVprobabl
p2402
aVsometh
p2403
aVhorribl
p2404
aVwrong
p2405
aVhowev
p2406
aVproblem
p2407
aVlast
p2408
aVdialog
p2409
aVpop
p2410
aVfunction
p2411
aVstay
p2412
aVprocess
p2413
aVexit
p2414
aVidea
p2415
aa(lp2416
Vberkeleydb
p2417
aVconcurr
p2418
aVoptim
p2419
aVlevel
p2420
aVconcurr
p2421
aVc++
p2422
aVimplement
p2423
aVberkeleydb
p2424
aVreason
p2425
aVsupport
p2426
aVmani
p2427
aVthread
p2428
aVhammer
p2429
aVdb
p2430
aVthroughput
p2431
aVstart
p2432
aVsuffer
p2433
aVresourc
p2434
aVcontent
p2435
aVive
p2436
aVread
p2437
aVmanual
p2438
aVset
p2439
aVnumber
p2440
aVlock
p2441
aVlocker
p2442
aVdatabas
p2443
aVpage
p2444
aVsize
p2445
aVetc
p2446
aVid
p2447
aVadvic
p2448
aVsomeon
p2449
aVreal-world
p2450
aVexperi
p2451
aVbdb
p2452
aVconcurr
p2453
aVapplic
p2454
aVpretti
p2455
aVsimpl
p2456
aVill
p2457
aVput
p2458
aVrecord
p2459
aVkb
p2460
aVcursor
p2461
aVdelet
p2462
aa(lp2463
Vbest
p2464
aVpractic
p2465
aVcollabor
p2466
aVenviron
p2467
aVbin
p2468
aVdirectori
p2469
aVsvn
p2470
aVbest
p2471
aVpractic
p2472
aVcheck
p2473
aVbin
p2474
aVdirectori
p2475
aVcollabor
p2476
aVenviron
p2477
aVuse
p2478
aVsvn
p2479
aVproject
p2480
aVlevel
p2481
aVrefer
p2482
aVexclud
p2483
aVcheckin
p2484
aVeasier
p2485
aVbin
p2486
aVdirectori
p2487
aVlot
p2488
aVdotnetnuk
p2489
aVsite
p2490
aVseem
p2491
aVmulti-develop
p2492
aVenviron
p2493
aVhuge
p2494
aVtask
p2495
aVenviron
p2496
aVsetup
p2497
aVcorrectli
p2498
aVultim
p2499
aVgoal
p2500
aVcours
p2501
aVnew
p2502
aVcheckout
p2503
aVtrunk
p2504
aVsvn
p2505
aVrestor
p2506
aVdnn
p2507
aVdatabas
p2508
aVwork
p2509
aa(lp2510
Vaspnet
p2511
aVvisual
p2512
aVstudio
p2513
aVsubvers
p2514
aVintegr
p2515
aVuse
p2516
aVankhsvn
p2517
aVvisual
p2518
aVstudio
p2519
aVthing
p2520
aVbug
p2521
aVankh
p2522
aVrealli
p2523
aVwork
p2524
aVaspnet
p2525
aVsite
p2526
aVcannot
p2527
aVproperli
p2528
aVrepositori
p2529
aVwont
p2530
aVdetect
p2531
aVchang
p2532
aVespeci
p2533
aVsite
p2534
aVremot
p2535
aVserver
p2536
aVaccess
p2537
aVfrontpag
p2538
aVextens
p2539
aVfile
p2540
aV=>
p2541
aVopen
p2542
aVsite
p2543
aValtern
p2544
aVplug-in
p2545
aVexist
p2546
aVmanual
p2547
aVdownload
p2548
aVfile
p2549
aVftp
p2550
aVuse
p2551
aVtortoisesvn
p2552
aVsvnex
p2553
aVrealli
p2554
aVlevel
p2555
aVintegr
p2556
aVwant
p2557
aVwant
p2558
aVstay
p2559
aVvisual
p2560
aVstudio
p2561
aVide
p2562
aVpossibl
p2563
aVcontrol
p2564
aVremot
p2565
aVserver
p2566
aVinstal
p2567
aVanyth
p2568
aVmean
p2569
aVwhole
p2570
aVchang
p2571
aVtracking/comparison
p2572
aVrepositori
p2573
aVmachin
p2574
aa(lp2575
Vsort
p2576
aVdictionari
p2577
aVvalu
p2578
aVdictionari
p2579
aVkey
p2580
aVvalu
p2581
aVneed
p2582
aVsort
p2583
aVvalu
p2584
aVexampl
p2585
aVhash
p2586
aVword
p2587
aVfrequenc
p2588
aVwant
p2589
aVorder
p2590
aVfrequenc
p2591
aVgood
p2592
aVsingl
p2593
aVvalu
p2594
aVfrequenc
p2595
aVwant
p2596
aVmap
p2597
aVword
p2598
aVsorteddictionari
p2599
aVorder
p2600
aVkey
p2601
aVvalu
p2602
aVresort
p2603
aVcustom
p2604
aVclass
p2605
aVcleanest
p2606
aVway
p2607
aa(lp2608
Vversion
p2609
aVcontrol
p2610
aVsystem
p2611
aVdatabas
p2612
aVstructur
p2613
aVchang
p2614
aVproblem
p2615
aVwork
p2616
aVchang
p2617
aVproject
p2618
aVrequir
p2619
aVnew
p2620
aVtabl
p2621
aVcolumn
p2622
aVdatabas
p2623
aVdatabas
p2624
aVmodif
p2625
aVcontinu
p2626
aVwork
p2627
aVusual
p2628
aVrememb
p2629
aVwrite
p2630
aVchang
p2631
aVreplic
p2632
aVlive
p2633
aVsystem
p2634
aVhowev
p2635
aVdont
p2636
aVrememb
p2637
aVive
p2638
aVchang
p2639
aVdont
p2640
aVrememb
p2641
aVwrite
p2642
aVpush
p2643
aVlive
p2644
aVsystem
p2645
aVbig
p2646
aVobviou
p2647
aVerror
p2648
aVfact
p2649
aVbest
p2650
aVpractic
p2651
aVsituat
p2652
aVversion
p2653
aVcontrol
p2654
aVsystem
p2655
aVdatabas
p2656
aVdont
p2657
aVcare
p2658
aVspecif
p2659
aVdatabas
p2660
aVtechnolog
p2661
aVwant
p2662
aVexist
p2663
aVwork
p2664
aVms
p2665
aVsql
p2666
aVserver
p2667
aVgreat
p2668
aa(lp2669
Vnet
p2670
aVmigrat
p2671
aVengin
p2672
aVbelief
p2673
aVmicrosoft
p2674
aVwork
p2675
aVoffici
p2676
aVruby-lik
p2677
aVmigrat
p2678
aVframework
p2679
aVhowev
p2680
aVhavent
p2681
aVabl
p2682
aVaddit
p2683
aVinform
p2684
aVorigin
p2685
aVsourc
p2686
aVbelief
p2687
aVanyon
p2688
aVinform
p2689
aVoffici
p2690
aVmigrat
p2691
aVframework
p2692
aVpossibl
p2693
aVopen
p2694
aVsourc
p2695
aa(lp2696
Vphp
p2697
aVsession
p2698
aVsecur
p2699
aVguidelin
p2700
aVmaintain
p2701
aVrespons
p2702
aVsession
p2703
aVsecur
p2704
aVphp
p2705
aVinform
p2706
aVweb
p2707
aVtime
p2708
aVland
p2709
aVplace!
p2710
aa(lp2711
Vuse
p2712
aVnest
p2713
aVclass
p2714
aVcase
p2715
aVwork
p2716
aVcollect
p2717
aVclass
p2718
aVuse
p2719
aVvideo
p2720
aVplayback
p2721
aVrecord
p2722
aVmain
p2723
aVclass
p2724
aVact
p2725
aVpublic
p2726
aVinterfac
p2727
aVmethod
p2728
aVetc
p2729
aVworkhors
p2730
aVclass
p2731
aVvideo
p2732
aVdecod
p2733
aVvideo
p2734
aVencod
p2735
aVlearn
p2736
aVexist
p2737
aVnest
p2738
aVclass
p2739
aVc++
p2740
aVim
p2741
aVcuriou
p2742
aVprogramm
p2743
aVthink
p2744
aVuse
p2745
aVlittl
p2746
aVwari
p2747
aVrealli
p2748
aVsure
p2749
aVbenefits/drawback
p2750
aVseem
p2751
aVaccord
p2752
aVbook
p2753
aVim
p2754
aVread
p2755
aVuse
p2756
aVcase
p2757
aVmine
p2758
aVbook
p2759
aVsuggest
p2760
aVscenario
p2761
aVmine
p2762
aVgood
p2763
aVsolut
p2764
aVnest
p2765
aVworkhors
p2766
aVclass
p2767
aVinsid
p2768
aVinterfac
p2769
aVclass
p2770
aVsepar
p2771
aVfile
p2772
aVclass
p2773
aVclient
p2774
aVmeant
p2775
aVuse
p2776
aVavoid
p2777
aVpossibl
p2778
aVname
p2779
aVconflict
p2780
aVdont
p2781
aVjustif
p2782
aVnest
p2783
aVclass
p2784
aVnew
p2785
aVconcept
p2786
aVwant
p2787
aVprogramm
p2788
aVthink
p2789
aVissu
p2790
aa(lp2791
Vuse
p2792
aVunsign
p2793
aVvalu
p2794
aVsign
p2795
aVappropri
p2796
aVuse
p2797
aVunsign
p2798
aVvariabl
p2799
aVsign
p2800
aVloop
p2801
aVhear
p2802
aVlot
p2803
aVopinion
p2804
aVwant
p2805
aVanyth
p2806
aVresembl
p2807
aVconsensu
p2808
aVjava
p2809
aVdoesnt
p2810
aVunsign
p2811
aVvalu
p2812
aVconciou
p2813
aVdecis
p2814
aVsun
p2815
aVmicrosystem
p2816
aVpart
p2817
aa(lp2818
Vxml
p2819
aVprocess
p2820
aVpython
p2821
aVim
p2822
aVbuild
p2823
aVpiec
p2824
aVproject
p2825
aVneed
p2826
aVconstruct
p2827
aVpost
p2828
aVxml
p2829
aVdocument
p2830
aVweb
p2831
aVservic
p2832
aVid
p2833
aVpython
p2834
aVmean
p2835
aVexpand
p2836
aVskill
p2837
aVunfortun
p2838
aVwhilst
p2839
aVxml
p2840
aVmodel
p2841
aVfairli
p2842
aVnet
p2843
aVim
p2844
aVuncertain
p2845
aVpro
p2846
aVcon
p2847
aVxml
p2848
aVmodel
p2849
aVpython
p2850
aVanyon
p2851
aVexperi
p2852
aVxml
p2853
aVprocess
p2854
aVpython
p2855
aVsuggest
p2856
aVstart
p2857
aVxml
p2858
aVfile
p2859
aVill
p2860
aVbuild
p2861
aVfairli
p2862
aVsimpl
p2863
aa(lp2864
Vgener
p2865
aVlist
p2866
aVpossibl
p2867
aVpermut
p2868
aVstring
p2869
aVgener
p2870
aVlist
p2871
aVpossibl
p2872
aVpermut
p2873
aVstring
p2874
aVx
p2875
aVy
p2876
aVcharact
p2877
aVlength
p2878
aVcontain
p2879
aVvariabl
p2880
aVlist
p2881
aVcharact
p2882
aVlanguag
p2883
aVwork
p2884
aVportabl
p2885
aa(lp2886
Vmuch
p2887
aVweb
p2888
aVbuild
p2889
aVprocess
p2890
aVyou/should
p2891
aVautom
p2892
aVmuch
p2893
aVweb
p2894
aVbuild
p2895
aVprocess
p2896
aVyou/should
p2897
aVautom
p2898
aVsystem
p2899
aVchoic
p2900
aVtop
p2901
aVhead
p2902
aVreal
p2903
aVone-step
p2904
aVweb
p2905
aVbuild
p2906
aVstep
p2907
aVplace
p2908
aVsourc
p2909
aVsnapshot
p2910
aVchang
p2911
aVconfig
p2912
aVfile
p2913
aVreleas
p2914
aVcompress
p2915
aVcss
p2916
aVjavascript
p2917
aVtest
p2918
aVdatabas
p2919
aVsnapshot
p2920
aVtest
p2921
aVdata
p2922
aVmove
p2923
aVsourc
p2924
aVserver
p2925
aVimport
p2926
aVclean
p2927
aVcurrent
p2928
aVversion
p2929
aVdatabas
p2930
aVserver
p2931
aVautomat
p2932
aVconfirm
p2933
aVbuild
p2934
aVsuccess
p2935
aVsystem
p2936
aVstep
p2937
aa(lp2938
Vsure
p2939
aVemail
p2940
aVsend
p2941
aVprogrammat
p2942
aVautomat
p2943
aVmark
p2944
aVspam
p2945
aVtricki
p2946
aVive
p2947
aVreli
p2948
aVtechniqu
p2949
aVpermission-bas
p2950
aVemail
p2951
aVie
p2952
aVsend
p2953
aVpeopl
p2954
aVpermiss
p2955
aVsend
p2956
aVuse
p2957
aVblatantli
p2958
aVspamish
p2959
aVterminolog
p2960
aVemail
p2961
aVsend
p2962
aVprogrammat
p2963
aVstart
p2964
aVshuffl
p2965
aVpeopl
p2966
aVspam
p2967
aVfolder
p2968
aVautomat
p2969
aVim
p2970
aVwonder
p2971
aVdespit
p2972
aVfact
p2973
aVparticular
p2974
aVemail
p2975
aVhuman
p2976
aVmark
p2977
aVspam
p2978
aVspecif
p2979
aVemail
p2980
aVcontain
p2981
aVlicens
p2982
aVkey
p2983
aVpeopl
p2984
aVpaid
p2985
aVgood
p2986
aVmoney
p2987
aVdont
p2988
aVthink
p2989
aVtheyr
p2990
aVconsid
p2991
aVspam
p2992
aVfigur
p2993
aVbig
p2994
aVtopic
p2995
aVessenti
p2996
aVignor
p2997
aVsimpleton
p2998
aa(lp2999
Vmean
p3000
aVtype
p3001
aVsafeti
p3002
aVwarn
p3003
aVcertain
p3004
aVjava
p3005
aVgener
p3006
aVcast
p3007
aVmean
p3008
aVjava
p3009
aVwarn
p3010
aVtype
p3011
aVsafeti
p3012
aVcast
p3013
aVobject
p3014
aVlist
p3015
aVactual
p3016
aVcheck
p3017
aVeras
p3018
aVtype
p3019
aVlist
p3020
aVwarn
p3021
aVtri
p3022
aVcast
p3023
aVobject
p3024
aVtype
p3025
aVgener
p3026
aVinform
p3027
aVcode
p3028
aa(lp3029
Vlucen
p3030
aVscore
p3031
aVresult
p3032
aVlucen
p3033
aVmultipl
p3034
aVindex
p3035
aVcover
p3036
aVpartit
p3037
aVsearch
p3038
aVdiffer
p3039
aVindex
p3040
aVreturn
p3041
aVresult
p3042
aVdiffer
p3043
aVscore
p3044
aVresult
p3045
aVdiffer
p3046
aVserver
p3047
aVmatch
p3048
aVexactli
p3049
aVie
p3050
aVsearch
p3051
aVname
p3052
aVjohn
p3053
aVsmith
p3054
aVdob
p3055
aV//
p3056
aVpartit
p3057
aVreturn
p3058
aVscore
p3059
aVpartit
p3060
aVreturn
p3061
aVscore
p3062
aVmatch
p3063
aVexactli
p3064
aVname
p3065
aVdob
p3066
aa(lp3067
Vmigrat
p3068
aVlarg
p3069
aVapp
p3070
aVvisual
p3071
aVbasic
p3072
aVvbnet
p3073
aVcompani
p3074
aVmonolith
p3075
aVpiec
p3076
aVsoftwar
p3077
aVcustom
p3078
aVuse
p3079
aVcar
p3080
aVdealership
p3081
aVorigin
p3082
aVapplic
p3083
aVvisual
p3084
aVbasic
p3085
aVgrown
p3086
aVsubstanti
p3087
aVlast
p3088
aVyear
p3089
aVhasnt
p3090
aVrealli
p3091
aVbusi
p3092
aVcase
p3093
aVswitch
p3094
aVnet
p3095
aVframework
p3096
aVsure
p3097
aVnewer
p3098
aVcertain
p3099
aVthing
p3100
aVuse
p3101
aVcorrectli
p3102
aVspeed
p3103
aVtime
p3104
aVcant
p3105
aVvisual
p3106
aVbasic
p3107
aVneed
p3108
aVabl
p3109
aVthing
p3110
aVharder
p3111
aVvisual
p3112
aVbasic
p3113
aVimposs
p3114
aVrecent
p3115
aVmicrosoft
p3116
aVdrop
p3117
aVsupport
p3118
aVvisual
p3119
aVbasic
p3120
aVseem
p3121
aVobviou
p3122
aVswitch
p3123
aVnew
p3124
aVplatform
p3125
aVinevit
p3126
aVway
p3127
aVvbnet
p3128
aVwork
p3129
aVrequir
p3130
aVthink
p3131
aVfundament
p3132
aVdiffer
p3133
aVheck
p3134
aVway
p3135
aVpass
p3136
aVvariabl
p3137
aVsub
p3138
aVchang
p3139
aVtell
p3140
aVswitch
p3141
aVnet
p3142
aVrequir
p3143
aVcomplet
p3144
aVre-design
p3145
aVre-writ
p3146
aVapplic
p3147
aVquestion
p3148
aVposit
p3149
aVtool
p3150
aVavail
p3151
aVsmooth
p3152
aVtransit
p3153
aVwork
p3154
aVavoid
p3155
aVsell
p3156
aVcustom
p3157
aVboss
p3158
aVsuit
p3159
aVroi
p3160
aV@rob
p3161
aVburk
p3162
aVboatload
p3163
aVwinform
p3164
aVabsolut
p3165
aVado
p3166
aVcode
p3167
aVdb
p3168
aVaccess
p3169
aVye
p3170
aVeasy-to-manag
p3171
aVplace
p3172
aVasp
p3173
aVweb
p3174
aVpage
p3175
aVnone
p3176
aVstrictli
p3177
aVdesktop
p3178
aVapp
p3179
aVcustom
p3180
aVcontrol
p3181
aVye
p3182
aVie
p3183
aVthird
p3184
aVparti
p3185
aVstuff
p3186
aVinstal
p3187
aVbase
p3188
aV~
p3189
aVmachin
p3190
aVlast
p3191
aVtime
p3192
aVcall
p3193
aVmicrosoft
p3194
aVtech
p3195
aVsupport
p3196
aVtime
p3197
aVtroubl
p3198
aVmsdn
p3199
aVlibrari
p3200
aVwork
p3201
aVmachin
p3202
aVday
p3203
aVmsdn
p3204
aVwasnt
p3205
aVavail
p3206
aVonlin
p3207
aVinternet
p3208
aVconnect
p3209
aVdial-up
p3210
aVsupport
p3211
aVcase
p3212
aVelev
p3213
aV"solution"
p3214
aVformat
p3215
aVhard
p3216
aVdrive
p3217
aVreinstal
p3218
aVeveryth
p3219
aVneedless
p3220
aVdidnt
p3221
aVconsid
p3222
aVsolut
p3223
aa(lp3224
Viphon
p3225
aVapp
p3226
aVlandscap
p3227
aVmode
p3228
aVsystem
p3229
aVnote
p3230
aVquestion
p3231
aVhistor
p3232
aVinterest
p3233
aVbest
p3234
aVway
p3235
aVcreat
p3236
aViphon
p3237
aVapplic
p3238
aVlandscap
p3239
aVmode
p3240
aVstart
p3241
aVposit
p3242
aVdevic
p3243
aVprogrammat
p3244
aVuse
p3245
aVinterfac
p3246
aVbuilder
p3247
aa(lp3248
Vunload
p3249
aVcom
p3250
aVcontrol
p3251
aVwork
p3252
aVvb
p3253
aVide
p3254
aVpart
p3255
aVeveryday
p3256
aVwork
p3257
aVmaintain
p3258
aVextend
p3259
aVlegaci
p3260
aVvb
p3261
aVapplic
p3262
aVcommon
p3263
aVengin
p3264
aVc/c++
p3265
aVvb
p3266
aVuse
p3267
aVfunction
p3268
aVorder
p3269
aVimprov
p3270
aVperform
p3271
aVasynchron
p3272
aVprogram
p3273
aVc
p3274
aVinterfac
p3275
aVreli
p3276
aVcom
p3277
aVcontrol
p3278
aVfire
p3279
aVevent
p3280
aVvb
p3281
aVproblem
p3282
aVregist
p3283
aVcontrol
p3284
aVvb
p3285
aVvb
p3286
aVload
p3287
aVcontrol
p3288
aVmemori
p3289
aVunload
p3290
aVquit
p3291
aVvb
p3292
aVide
p3293
aVcontrol
p3294
aVload
p3295
aVwhole
p3296
aVtime
p3297
aVunabl
p3298
aVrecompil
p3299
aVvc
p3300
aVdll
p3301
aVfile
p3302
aVlock
p3303
aVsolut
p3304
aVfound
p3305
aVenabl
p3306
aVcontrol
p3307
aVvb
p3308
aVuse
p3309
aVcreateobject
p3310
aVfull
p3311
aVname
p3312
aVcontrol
p3313
aVproblem
p3314
aVdeclar
p3315
aVcontrol
p3316
aVobject
p3317
aVvb
p3318
aVinterfac
p3319
aVuse
p3320
aVaccess
p3321
aVintellisens
p3322
aVpain
p3323
aVidea
p3324
aVtell
p3325
aVvb
p3326
aVunload
p3327
aVcontrol
p3328
aVquit
p3329
aVapplic
p3330
aVdirectli
p3331
aVide
p3332
aa(lp3333
Vprogrammat
p3334
aVlaunch
p3335
aVie
p3336
aVmobil
p3337
aVfavorit
p3338
aVscreen
p3339
aVway
p3340
aVlaunch
p3341
aViemobil
p3342
aVfavorit
p3343
aVscreen
p3344
aVdirectli
p3345
aVspecifi
p3346
aVcommand
p3347
aVline
p3348
aVparamet
p3349
aa(lp3350
Vschedul
p3351
aVtask
p3352
aVwindow
p3353
aVsituat
p3354
aVeveri
p3355
aVcoupl
p3356
aVmonth
p3357
aVneed
p3358
aVsolut
p3359
aVschedul
p3360
aVperiod
p3361
aVhavent
p3362
aVfound
p3363
aVway
p3364
aVhandl
p3365
aVwindow
p3366
aVim
p3367
aVentir
p3368
aVhappi
p3369
aVeveri
p3370
aVtime
p3371
aVend
p3372
aVfeel
p3373
aVcorral
p3374
aVuse
p3375
aVwindow
p3376
aVservic
p3377
aVseem
p3378
aVunaccept
p3379
aVamount
p3380
aVoverhead
p3381
aVsometh
p3382
aVcron
p3383
aVjob
p3384
aVunix
p3385
aVmiss
p3386
aVsometh
p3387
aVuse
p3388
aVschedul
p3389
aVapplic
p3390
aVwindow
p3391
aV@karl
p3392
aVye
p3393
aVclearer
p3394
aVsometh
p3395
aVive
p3396
aVsteer
p3397
aVschedul
p3398
aVtask
p3399
aVpeopl
p3400
aVwork
p3401
aVservic
p3402
aVrealli
p3403
aVgotten
p3404
aVclear
p3405
aVreason
p3406
aVhavent
p3407
aVheavi
p3408
aVwindow
p3409
aVuser
p3410
aVyear
p3411
aVrecent
p3412
aVstart
p3413
aVplatform
p3414
aVim
p3415
aVunfamiliar
p3416
aVcertain
p3417
aVpart
p3418
aV@sasb
p3419
aVcommand
p3420
aVnew
p3421
aVseem
p3422
aVim
p3423
aVlook
p3424
aVlink
p3425
aVsuggest
p3426
aVwindow
p3427
aVschtask
p3428
aVim
p3429
aVguess
p3430
aVcommand
p3431
aVline
p3432
aVwindow
p3433
aVschedul
p3434
aVtask
p3435
aVpiec
p3436
aVwindow
p3437
aa(lp3438
Vimplement
p3439
aV"rememb
p3440
aVme"
p3441
aVrail
p3442
aVapplic
p3443
aVrails-app
p3444
aVsign
p3445
aVbox
p3446
aV"rememb
p3447
aVme"
p3448
aVcheckbox
p3449
aVuser
p3450
aVcheck
p3451
aVbox
p3452
aVremain
p3453
aVlog
p3454
aVbrowser
p3455
aVim
p3456
aVtrack
p3457
aVuser
p3458
aVlog
p3459
aVstore
p3460
aVid
p3461
aVuser
p3462
aVsession
p3463
aVsession
p3464
aVimplement
p3465
aVrail
p3466
aVsession
p3467
aVcooki
p3468
aVpersist
p3469
aVpersist
p3470
aVseem
p3471
aVhack
p3472
aVsurpris
p3473
aVcommon
p3474
aVfunction
p3475
aVway
p3476
aVedit
p3477
aVgareth
p3478
aVanswer
p3479
aVpretti
p3480
aVgood
p3481
aVanswer
p3482
aVsomeon
p3483
aVfamiliar
p3484
aVrail
p3485
aVuniqu
p3486
aVcookiesessionstor
p3487
aa(lp3488
Vfull
p3489
aVpath
p3490
aVfont
p3491
aVdisplay
p3492
aVname
p3493
aVmac
p3494
aVuse
p3495
aVphotoshop
p3496
aVjavascript
p3497
aVapi
p3498
aVfont
p3499
aVpsd
p3500
aVfont
p3501
aVname
p3502
aVreturn
p3503
aVapi
p3504
aVwant
p3505
aVactual
p3506
aVphysic
p3507
aVfont
p3508
aVfile
p3509
aVcorrespond
p3510
aVdisc
p3511
aVpython
p3512
aVprogram
p3513
aVosx
p3514
aVguess
p3515
aVim
p3516
aVlook
p3517
aVphotoshop
p3518
aVjavascript
p3519
aVpython
p3520
aVfunction
p3521
aVosx
p3522
aVapi
p3523
aVcall
p3524
aVpython
p3525
aa(lp3526
Vhomegrown
p3527
aVconsumpt
p3528
aVweb
p3529
aVservic
p3530
aVive
p3531
aVwrite
p3532
aVweb
p3533
aVservic
p3534
aVnet
p3535
aVapp
p3536
aVim
p3537
aVreadi
p3538
aVconsum
p3539
aVive
p3540
aVnumer
p3541
aVexampl
p3542
aVhomegrown
p3543
aVcode
p3544
aVconsum
p3545
aVservic
p3546
aVoppos
p3547
aVuse
p3548
aVauto
p3549
aVgener
p3550
aVmethod
p3551
aVvisual
p3552
aVstudio
p3553
aVcreat
p3554
aVad
p3555
aVweb
p3556
aVrefer
p3557
aVadvantag
p3558
aa(lp3559
Vwinform
p3560
aVcombobox
p3561
aVdata
p3562
aVbind
p3563
aVgotcha
p3564
aVok
p3565
aVim
p3566
aVweb
p3567
aVdabbl
p3568
aVwindow
p3569
aVform
p3570
aVproject
p3571
aVeveri
p3572
aVthing
p3573
aVconfound
p3574
aVday
p3575
aVassum
p3576
aVsometh
p3577
aVcombo
p3578
aVbox
p3579
aVbound
p3580
aVarray
p3581
aVeveryth
p3582
aVwork
p3583
aVfine
p3584
aVchang
p3585
aVvalu
p3586
aVcombo
p3587
aVbox
p3588
aVchang
p3589
aVcombo
p3590
aVbox
p3591
aVselect
p3592
aVarray
p3593
aVpass
p3594
aVrefer
p3595
aVlearn
p3596
aVlearn
p3597
aVc
p3598
aVd
p3599
aVearth
p3600
aVcombo
p3601
aVbox
p3602
aVchang
p3603
aVtogeth
p3604
aVdont
p3605
aVbeliev
p3606
aVcombo
p3607
aVbox
p3608
aVcontrol
p3609
aVmodifi
p3610
aVcollect
p3611
aVwork
p3612
aVdont
p3613
aVachiev
p3614
aVfuncion
p3615
aV/
p3616
aVdesir
p3617
aa(lp3618
Vpreview
p3619
aVjpeg
p3620
aVpdf
p3621
aVwindow
p3622
aVcross-platform
p3623
aVpython
p3624
aVapplic
p3625
aVneed
p3626
aVgener
p3627
aVjpeg
p3628
aVpreview
p3629
aVpage
p3630
aVpdf
p3631
aVmac
p3632
aVspawn
p3633
aVsip
p3634
aVsometh
p3635
aVsimilarli
p3636
aVsimpl
p3637
aVwindow
p3638
aa(lp3639
Vfrequent
p3640
aVsystemexit
p3641
aVrubi
p3642
aVhttp
p3643
aVcall
p3644
aVrubi
p3645
aVrail
p3646
aVwebsit
p3647
aVhttp
p3648
aVcall
p3649
aVextern
p3650
aVweb
p3651
aVservic
p3652
aVday
p3653
aVsystemexit
p3654
aVstacktrac
p3655
aVerror
p3656
aVemail
p3657
aVcall
p3658
aVservic
p3659
aVfail
p3660
aVtri
p3661
aVexact
p3662
aVqueri
p3663
aVsite
p3664
aVmoment
p3665
aVwork
p3666
aVfine
p3667
aVsinc
p3668
aVsite
p3669
aVlive
p3670
aVive
p3671
aVluck
p3672
aVtrack
p3673
aVcaus
p3674
aVrubi
p3675
aVversion
p3676
aVrail
p3677
aVversion
p3678
aVanyon
p3679
aVels
p3680
aVproblem
p3681
aVerror
p3682
aVstacktrac
p3683
aVsystemexit
p3684
aVoccur
p3685
aV/usr/local/lib/ruby/gems//gems/rails-/lib/fcgi_handlerrbin
p3686
aV`exit
p3687
aV/usr/local/lib/ruby/gems//gems/rails-/lib/fcgi_handlerrbin
p3688
aV`exit_now_handl
p3689
aV/usr/local/lib/ruby/gems//gems/activesupport-/lib/active_support/inflectorrbin
p3690
aV`to_proc
p3691
aV/usr/local/lib/ruby//net/protocolrbin
p3692
aV`call
p3693
aV/usr/local/lib/ruby//net/protocolrbin
p3694
aV`sysread
p3695
aV/usr/local/lib/ruby//net/protocolrbin
p3696
aV`rbuf_fil
p3697
aV/usr/local/lib/ruby//timeoutrbin
p3698
aV`timeout
p3699
aV/usr/local/lib/ruby//timeoutrbin
p3700
aV`timeout
p3701
aV/usr/local/lib/ruby//net/protocolrbin
p3702
aV`rbuf_fil
p3703
aV/usr/local/lib/ruby//net/protocolrbin
p3704
aV`readuntil
p3705
aV/usr/local/lib/ruby//net/protocolrbin
p3706
aV`readlin
p3707
aV/usr/local/lib/ruby//net/httprbin
p3708
aV`read_status_lin
p3709
aV/usr/local/lib/ruby//net/httprbin
p3710
aV`read_new
p3711
aV/usr/local/lib/ruby//net/httprbin
p3712
aV`request
p3713
aV/usr/local/lib/ruby//net/httprbin
p3714
aV`request_get
p3715
aV/usr/local/lib/ruby//net/httprbin
p3716
aV`get_respons
p3717
aV/usr/local/lib/ruby//net/httprbin
p3718
aV`start
p3719
aV/usr/local/lib/ruby//net/httprbin
p3720
aV`get_respons
p3721
aa(lp3722
Vcontinu
p3723
aVintegr
p3724
aVsystem
p3725
aVpython
p3726
aVcodebas
p3727
aVim
p3728
aVstart
p3729
aVwork
p3730
aVhobbi
p3731
aVproject
p3732
aVpython
p3733
aVcodebas
p3734
aVset
p3735
aVform
p3736
aVcontinu
p3737
aVintegr
p3738
aVie
p3739
aVbatteri
p3740
aVtest-cas
p3741
aVtime
p3742
aVcheck-in
p3743
aVsend
p3744
aVnag
p3745
aVe-mail
p3746
aVrespons
p3747
aVperson
p3748
aVtest
p3749
aVfail
p3750
aVsimilar
p3751
aVcruisecontrol
p3752
aVteamciti
p3753
aVrealiz
p3754
aVhook
p3755
aVvcse
p3756
aVrequir
p3757
aVtest
p3758
aVmachin
p3759
aVversion
p3760
aVcontrol
p3761
aVserver
p3762
aVisnt
p3763
aVeleg
p3764
aVanyon
p3765
aVsuggest
p3766
aVsmall
p3767
aVuser-friendli
p3768
aVopen-sourc
p3769
aVcontinu
p3770
aVintegr
p3771
aVsystem
p3772
aVsuitabl
p3773
aVpython
p3774
aVcodebas
p3775
aa(lp3776
Vdefinit
p3777
aVguid
p3778
aVform
p3779
aVbase
p3780
aVwebsit
p3781
aVauthent
p3782
aVform
p3783
aVbase
p3784
aVauthent
p3785
aVwebsit
p3786
aVbeliev
p3787
aVstack
p3788
aVoverflow
p3789
aVresourc
p3790
aVspecif
p3791
aVtechnic
p3792
aVquestion
p3793
aVgener
p3794
aVguidelin
p3795
aVsolv
p3796
aVvariat
p3797
aVcommon
p3798
aVproblem
p3799
aV"form
p3800
aVbase
p3801
aVauthent
p3802
aVwebsites"
p3803
aVfine
p3804
aVtopic
p3805
aVexperi
p3806
aVinclud
p3807
aVtopic
p3808
aVlog
p3809
aVremain
p3810
aVlog
p3811
aVstore
p3812
aVpassword
p3813
aVuse
p3814
aVsecret
p3815
aVquestion
p3816
aVforgotten
p3817
aVusername/password
p3818
aVfunction
p3819
aVopenid
p3820
aV"rememb
p3821
aVme"
p3822
aVcheckbox
p3823
aVbrowser
p3824
aVautocomplet
p3825
aVusernam
p3826
aVpassword
p3827
aVsecret
p3828
aVurl
p3829
aVpublic
p3830
aVurl
p3831
aVprotect
p3832
aVdigest
p3833
aVcheck
p3834
aVpassword
p3835
aVstrength
p3836
aVe-mail
p3837
aVvalid
p3838
aVmuch
p3839
aVform
p3840
aVbase
p3841
aVauthent
p3842
aVinclud
p3843
aVthing
p3844
aVrole
p3845
aVauthor
p3846
aVhttp
p3847
aVbasic
p3848
aVauthent
p3849
aVpleas
p3850
aVhelp
p3851
aVsuggest
p3852
aVsubtop
p3853
aVsubmit
p3854
aVgood
p3855
aVarticl
p3856
aVsubject
p3857
aVedit
p3858
aVoffici
p3859
aVanswer
p3860
aa(lp3861
Vuse
p3862
aVcombin
p3863
aVset
p3864
aVtest
p3865
aVdata
p3866
aVtest
p3867
aVfunction
p3868
aVtupl
p3869
aVset
p3870
aVcase
p3871
aVnormal
p3872
aVvalu
p3873
aVexampl
p3874
aVtest
p3875
aVfunction
p3876
aVreturn
p3877
aVwhenev
p3878
aVlength
p3879
aVform
p3880
aVvalid
p3881
aVtriangl
p3882
aVspecif
p3883
aVcase
p3884
aVneg
p3885
aV/
p3886
aVsmall
p3887
aV/
p3888
aVlarg
p3889
aVnumber
p3890
aVvalu
p3891
aVclose-to
p3892
aVoverflow
p3893
aVetc;
p3894
aVmain
p3895
aVaim
p3896
aVgener
p3897
aVcombin
p3898
aVvalu
p3899
aVrepetit
p3900
aVorder
p3901
aVset
p3902
aVtest
p3903
aVdata
p3904
aVnote
p3905
aVactual
p3906
aVanswer
p3907
aVhelp
p3908
aVother
p3909
aVchalleng
p3910
aVpeopl
p3911
aVhere!
p3912
aV--will
p3913
aVpost
p3914
aVanswer
p3915
aa(lp3916
Vdiffer
p3917
aVint
p3918
aVinteg
p3919
aVjava
p3920
aVc#
p3921
aVsit
p3922
aVlocal
p3923
aVborder
p3924
aVsip
p3925
aVcoffe
p3926
aVread
p3927
aVjoel
p3928
aVsoftwar
p3929
aVfree
p3930
aVjoel
p3931
aVspolski
p3932
aVsometh
p3933
aVparticular
p3934
aVtype
p3935
aVprogramm
p3936
aVdiffer
p3937
aVint
p3938
aVinteg
p3939
aVjava/c#
p3940
aVobject
p3941
aVorient
p3942
aVprogram
p3943
aVlanguag
p3944
aVquick
p3945
aVbrain
p3946
aVcheck
p3947
aVrealiz
p3948
aVdismay
p3949
aVdidnt
p3950
aVanswer
p3951
aa(lp3952
Vdeploy
p3953
aVsql
p3954
aVserver
p3955
aVdatabas
p3956
aVtest
p3957
aVlive
p3958
aVwonder
p3959
aVguy
p3960
aVmanag
p3961
aVdeploy
p3962
aVdatabas
p3963
aVsql
p3964
aVserver
p3965
aVspecif
p3966
aVsql
p3967
aVserver
p3968
aVlive
p3969
aVpart
p3970
aVbuildscript
p3971
aVstandard
p3972
aVwindow
p3973
aVbatch
p3974
aVcurrent
p3975
aVcomplex
p3976
aVscript
p3977
aVswitch
p3978
aVpowershel
p3979
aVenterpris
p3980
aVmanager/manag
p3981
aVstudio
p3982
aVexpress
p3983
aVcount
p3984
aVcopi
p3985
aVmdf
p3986
aVfile
p3987
aVattach
p3988
aVbit
p3989
aVcare
p3990
aVwork
p3991
aVbinari
p3992
aVdata
p3993
aVseem
p3994
aVcompatibl
p3995
aVissu
p3996
aVlive
p3997
aVversion
p3998
aVserver
p3999
aVtime
p4000
aVlack
p4001
aV"explain
p4002
aVcreat
p4003
aVtable"
p4004
aVt-sql
p4005
aVsometh
p4006
aVexport
p4007
aVexist
p4008
aVdatabas
p4009
aVsql-script
p4010
aVtarget
p4011
aVserver
p4012
aVye
p4013
aVtool
p4014
aVautomat
p4015
aVdump
p4016
aVdatabas
p4017
aVsql
p4018
aVqueri
p4019
aVcommand
p4020
aVline
p4021
aVenterpris
p4022
aVmanager/manag
p4023
aVstudio
p4024
aVexpress
p4025
aVcount
p4026
aVlastli
p4027
aVfact
p4028
aVlive
p4029
aVdatabas
p4030
aValreadi
p4031
aVcontain
p4032
aVdata
p4033
aVdeploy
p4034
aVinvolv
p4035
aVcreat
p4036
aVtabl
p4037
aVcheck
p4038
aVdiffer
p4039
aVstructur
p4040
aValter
p4041
aVtabl
p4042
aVlive
p4043
aVneed
p4044
aVdata
p4045
aVverification/convers
p4046
aVexist
p4047
aVfield
p4048
aVchang
p4049
aVhear
p4050
aVlot
p4051
aVgreat
p4052
aVstuff
p4053
aVred
p4054
aVgate
p4055
aVproduct
p4056
aVhobbi
p4057
aVproject
p4058
aVprice
p4059
aVbit
p4060
aVsteep
p4061
aVuse
p4062
aVautomat
p4063
aVdeploy
p4064
aVsql
p4065
aVserver
p4066
aVdatabas
p4067
aVtest
p4068
aVlive
p4069
aa(lp4070
Vbest
p4071
aVway
p4072
aVaccess
p4073
aVexchang
p4074
aVuse
p4075
aVphp
p4076
aVim
p4077
aVwrite
p4078
aVcm
p4079
aVapplic
p4080
aVphp
p4081
aVrequir
p4082
aVabl
p4083
aVinterfac
p4084
aVcustom
p4085
aVexchang
p4086
aVserver
p4087
aVive
p4088
aVfunction
p4089
aVtime
p4090
aVuse
p4091
aVwebdav
p4092
aVim
p4093
aVlean
p4094
aVsite
p4095
aVii
p4096
aVapach
p4097
aVprefer
p4098
aVwindow
p4099
aVserver
p4100
aVthing
p4101
aVneed
p4102
aVinclud
p4103
aVad
p4104
aVcontact
p4105
aVuser
p4106
aVaddress
p4107
aVbook
p4108
aVsend
p4109
aVemail
p4110
aVuser
p4111
aVreport
p4112
aVcontact
p4113
aVuser
p4114
aVpretti
p4115
aVeasi
p4116
aVwebdav
p4117
aVway
p4118
aVdoesnt
p4119
aVrequir
p4120
aVfunction
p4121
aVdeprec
p4122
aVtime
p4123
aVidea
p4124
aVupdat
p4125
aVjustin
p4126
aVlove
p4127
aVidea
p4128
aVuse
p4129
aVcom
p4130
aVobject
p4131
aVworri
p4132
aVmaintain
p4133
aVrd
p4134
aVproduct
p4135
aVeveryth
p4136
aVwork
p4137
aVjohn
p4138
aVwrite
p4139
aVweb
p4140
aVservic
p4141
aVc#
p4142
aVinterfac
p4143
aVfunction
p4144
aVaccess
p4145
aVphp
p4146
aVapp
p4147
aVlittl
p4148
aVbit
p4149
aVway
p4150
aVim
p4151
aV%
p4152
aVconvinc
p4153
aVwebdav
p4154
aVanyon
p4155
aVshow
p4156
aVim
p4157
aVsilli
p4158
aa(lp4159
Vcx_oracl
p4160
aVbest
p4161
aVway
p4162
aViter
p4163
aVresult
p4164
aVset
p4165
aVsever
p4166
aVway
p4167
aViter
p4168
aVresult
p4169
aVset
p4170
aVway
p4171
aVbest
p4172
aa(lp4173
Vrobust
p4174
aVrandom
p4175
aVnumber
p4176
aVgener
p4177
aVim
p4178
aVlook
p4179
aVperform
p4180
aVreason
p4181
aVrobust
p4182
aVrng
p4183
aVuse
p4184
aVspecial
p4185
aVhardwar
p4186
aVuse
p4187
aVmathemat
p4188
aVmethod
p4189
aVmersenn
p4190
aVtwister
p4191
aVetc
p4192
aV"collect
p4193
aVentropy"
p4194
aVmachin
p4195
aVwhatev
p4196
aVlinux/etc
p4197
aVdrand
p4198
aVgener
p4199
aVrandom
p4200
aVbit
p4201
aVid
p4202
aVsimilar
p4203
aVfunction/class
p4204
aVc++
p4205
aVc#
p4206
aVgener
p4207
aVbit
p4208
aVrandom
p4209
aVlow-ord
p4210
aVbit
p4211
aVequal
p4212
aVrandom
p4213
aVhigh-ord
p4214
aVbit
p4215
aVdoesnt
p4216
aVcryptograph
p4217
aVsecur
p4218
aVuse
p4219
aVbase
p4220
aVc-languag
p4221
aVrand
p4222
aVnet
p4223
aVsystemrandom
p4224
aVsourc
p4225
aVcode
p4226
aVlink
p4227
aVsourc
p4228
aVetc
p4229
aVappreciated!
p4230
aVfail
p4231
aVtype
p4232
aVrng
p4233
aVlook
p4234
aa(lp4235
Vbuild
p4236
aVwindow
p4237
aVnt
p4238
aVuse
p4239
aVvisual
p4240
aVstudio
p4241
aVmfc
p4242
aVapplic
p4243
aVim
p4244
aVtri
p4245
aVmigrat
p4246
aVuse
p4247
aVcaus
p4248
aVset
p4249
aVcaus
p4250
aVerror
p4251
aVset
p4252
aVpleas
p4253
aVuse
p4254
aV/md
p4255
aVswitch
p4256
aV_afxdll
p4257
aVbuild
p4258
aVresearch
p4259
aVdate
p4260
aVindic
p4261
aVimposs
p4262
aVbuild
p4263
aVapplic
p4264
aVexecut
p4265
aVwindow
p4266
aVnt
p4267
aVuse
p4268
aVvisual
p4269
aVstudio
p4270
aVc++
p4271
aVcase
p4272
aVrealli
p4273
aVtrue
p4274
aVworkaround
p4275
aVavail
p4276
aa(lp4277
Veffici
p4278
aVcode
p4279
aVprime
p4280
aVnumber
p4281
aVwant
p4282
aVprint
p4283
aVprime
p4284
aVnumber
p4285
aVanyon
p4286
aVeffici
p4287
aVcode
p4288
aVclarif
p4289
aVmatter
p4290
aVcode
p4291
aVineffici
p4292
aVn
p4293
aV>
p4294
aVsize
p4295
aVcode
p4296
aVmatter
p4297
aVcannot
p4298
aVhard
p4299
aVcode
p4300
aVvalu
p4301
aVmanner
p4302
aa(lp4303
Vuse
p4304
aVlambda
p4305
aVuse
p4306
aVprocnew
p4307
aVrubi
p4308
aVsubtl
p4309
aVdiffer
p4310
aVproc/lambda
p4311
aVhand
p4312
aVdiffer
p4313
aVguidelin
p4314
aVdecid
p4315
aVchoos
p4316
aVrubi
p4317
aVproc
p4318
aVlambda
p4319
aVdiffer
p4320
aVdeal
p4321
aa(lp4322
Vswap
p4323
aVuniqu
p4324
aVindex
p4325
aVcolumn
p4326
aVvalu
p4327
aVdatabas
p4328
aVdatabas
p4329
aVtabl
p4330
aVfield
p4331
aVprimari
p4332
aVkey
p4333
aVuniqu
p4334
aVindex
p4335
aVwant
p4336
aVswap
p4337
aVvalu
p4338
aVcolumn
p4339
aVrow
p4340
aVhack
p4341
aVdelet
p4342
aVrow
p4343
aVre-insert
p4344
aVupdat
p4345
aVrow
p4346
aVvalu
p4347
aVswap
p4348
aVupdat
p4349
aVactual
p4350
aVvalu
p4351
aVdont
p4352
aVwant
p4353
aVseem
p4354
aVappropri
p4355
aVsolut
p4356
aVproblem
p4357
aVanyon
p4358
aVhelp
p4359
aa(lp4360
Vautomat
p4361
aVupdat
p4362
aVversion
p4363
aVnumber
p4364
aVversion
p4365
aVproperti
p4366
aVapplic
p4367
aVincrement
p4368
aVbuild
p4369
aVim
p4370
aVsure
p4371
aVenabl
p4372
aVfunction
p4373
aVvisual
p4374
aVstudio
p4375
aV/
p4376
aVtri
p4377
aVspecifi
p4378
aVassemblyvers
p4379
aV*
p4380
aVdoesnt
p4381
aVexactli
p4382
aVwant
p4383
aVim
p4384
aVuse
p4385
aVset
p4386
aVfile
p4387
aVattempt
p4388
aVassembl
p4389
aVversion
p4390
aVchang
p4391
aVset
p4392
aVreset
p4393
aVdefault
p4394
aVsinc
p4395
aVapplic
p4396
aVlook
p4397
aVset
p4398
aVfile
p4399
aVdirectori
p4400
aVabl
p4401
aVdisplay
p4402
aVversion
p4403
aVnumber
p4404
aVform
p4405
aVuser
p4406
aVproblem
p4407
aVlog
p4408
aVversion
p4409
aVuse
p4410
aVtell
p4411
aVupgrad
p4412
aVold
p4413
aVreleas
p4414
aVshort
p4415
aVexplan
p4416
aVversion
p4417
aVwork
p4418
aVappreci
p4419
aVbuild
p4420
aVrevis
p4421
aVnumber
p4422
aVincrement
p4423
aa(lp4424
Vchecklist
p4425
aVii
p4426
aV/aspnet
p4427
aVwindow
p4428
aVauthent
p4429
aVive
p4430
aVtroubl
p4431
aVaspnet
p4432
aVapplic
p4433
aVautomat
p4434
aVlog
p4435
aVuser
p4436
aVintranet
p4437
aVsite
p4438
aVim
p4439
aVbuild
p4440
aVmatter
p4441
aVgoogl
p4442
aVexperiment
p4443
aVappli
p4444
aVlogin
p4445
aVbox
p4446
aVdisplay
p4447
aVie
p4448
aVive
p4449
aVwindow
p4450
aVauthent
p4451
aVmode
p4452
aVset
p4453
aVwebconfig
p4454
aVdisabl
p4455
aVanonym
p4456
aVaccess
p4457
aVconfigur
p4458
aVcorrect
p4459
aVdefault
p4460
aVdomain
p4461
aVii
p4462
aVask
p4463
aVuser
p4464
aVlog
p4465
aVannoyingli
p4466
aVuser
p4467
aVrequir
p4468
aVprovid
p4469
aVdomain
p4470
aVdomain\u005caus
p4471
aVcaus
p4472
aVproblem
p4473
aVnon-techn
p4474
aVvisitor
p4475
aVthank
p4476
aVzeu
p4477
aVpassword
p4478
aVrememb
p4479
aVfunction
p4480
aVim
p4481
aVnetwork
p4482
aVadministr
p4483
aVpossibl
p4484
aVsometh
p4485
aVactiv
p4486
aVdirectori
p4487
aVset
p4488
aVincorrectli
p4489
aVmiss
p4490
aVsometh
p4491
aVsimpl
p4492
aVpleas
p4493
aVnote
p4494
aVdont
p4495
aVwant
p4496
aVimperson
p4497
aVuser
p4498
aVneed
p4499
aViprincipalnam
p4500
aVproperti
p4501
aVmatch
p4502
aVvalid
p4503
aVrecord
p4504
aVuser
p4505
aVdatabas
p4506
aVhenc
p4507
aVauthent
p4508
aVuser
p4509
aVapplic
p4510
aVend
p4511
aVuse
p4512
aVchecklist
p4513
aVconfigur
p4514
aVrequir
p4515
aVad
p4516
aVaspnet
p4517
aVii
p4518
aVwork
p4519
aVtogeth
p4520
aVmanner
p4521
aVrefer
p4522
aVdebug
p4523
aVhope
p4524
aVreduc
p4525
aVuser
p4526
aVfriction
p4527
aa(lp4528
Vencrypt
p4529
aVpassword
p4530
aVfastest
p4531
aVsecur
p4532
aVway
p4533
aVencrypt
p4534
aVpassword
p4535
aVphp
p4536
aVprefer
p4537
aVmethod
p4538
aVchoos
p4539
aVportablein
p4540
aVword
p4541
aVmigrat
p4542
aVwebsit
p4543
aVdiffer
p4544
aVserver
p4545
aVpassword
p4546
aVcontinu
p4547
aVworkth
p4548
aVmethod
p4549
aVuse
p4550
aVtold
p4551
aVdepend
p4552
aVexact
p4553
aVversion
p4554
aVlibrari
p4555
aVinstal
p4556
aVserver
p4557
aa(lp4558
Vuse
p4559
aVmatch
p4560
aVattribut
p4561
aVpython
p4562
aVobject
p4563
aVarray
p4564
aVdont
p4565
aVrememb
p4566
aVdream
p4567
aVseem
p4568
aVrecal
p4569
aVfunction
p4570
aVsometh
p4571
aVive
p4572
aVlook
p4573
aVdoc
p4574
aVkind
p4575
aVthing
p4576
aVdoesnt
p4577
aVfall
p4578
aVobviou
p4579
aVlist
p4580
aVheader
p4581
aa(lp4582
Vconnect
p4583
aVphp
p4584
aVas/
p4585
aVive
p4586
aVupcom
p4587
aVproject
p4588
aVwherein
p4589
aVneed
p4590
aVconnect
p4591
aVwebsit
p4592
aVphp/apach
p4593
aV/openbsd
p4594
aVback-end
p4595
aVsystem
p4596
aViseri
p4597
aVos
p4598
aVvr
p4599
aVaccess
p4600
aVtabl
p4601
aVstore
p4602
aVive
p4603
aVcheck
p4604
aVroadblock
p4605
aVive
p4606
aVdb
p4607
aVextens
p4608
aVdb
p4609
aVsoftwar
p4610
aVibm
p4611
aVlinux
p4612
aVive
p4613
aVtri
p4614
aVcompil
p4615
aVextens
p4616
aVsoftwar
p4617
aVibm
p4618
aVtri
p4619
aVprecompil
p4620
aVibm_db
p4621
aVextens
p4622
aVluck
p4623
aVibm
p4624
aVsupport
p4625
aVlinux
p4626
aVturn
p4627
aVlinux
p4628
aVemul
p4629
aVkernel
p4630
aVdidnt
p4631
aVseem
p4632
aVhelp
p4633
aVanyth
p4634
aVanyon
p4635
aVeveryth
p4636
aVnativ
p4637
aVopenbsd
p4638
aVgreat
p4639
aVthink
p4640
aVset
p4641
aVsecond
p4642
aVserver
p4643
aVcento
p4644
aVdb
p4645
aVinstal
p4646
aVzendcor
p4647
aVibm
p4648
aVsinc
p4649
aVseem
p4650
aVdriver
p4651
aVset
p4652
aVsmall
p4653
aVtransact
p4654
aVserver
p4655
aVpost
p4656
aVjson
p4657
aVrepresent
p4658
aVdb
p4659
aVdata
p4660
aVneed
p4661
aVsecond
p4662
aVoption
p4663
aVseem
p4664
aVoverkil
p4665
aVanyon
p4666
aVels
p4667
aVidea
p4668
aa(lp4669
Vide
p4670
aVprovid
p4671
aVcode
p4672
aVcomplet
p4673
aVpython
p4674
aVtype
p4675
aVcharact
p4676
aVkeyword
p4677
aVdrastic
p4678
aVspeed
p4679
aVcode
p4680
aVspend
p4681
aVtime
p4682
aVwrite
p4683
aVpython
p4684
aVcode
p4685
aVreach
p4686
aVctrl+space
p4687
aVide
p4688
aVsupport
p4689
aVcode
p4690
aVcomplet
p4691
aVpython
p4692
aVpython
p4693
aVmac
p4694
aVos
p4695
aVx
p4696
aVtool
p4697
aVprefer
p4698
aVseem
p4699
aVdoc
p4700
aVstring
p4701
aVproperti
p4702
aVpython
p4703
aVmethod
p4704
aVperfect
p4705
aVmatch
p4706
aVinlin
p4707
aVapi
p4708
aVdiscoveri
p4709
aa(lp4710
Vembed
p4711
aVdatabas
p4712
aVnet
p4713
aVnetwork
p4714
aVlook
p4715
aVembed
p4716
aVdatabas
p4717
aVuse
p4718
aVnet
p4719
aVc#
p4720
aVapplic
p4721
aVcaveat
p4722
aVapplic
p4723
aVleast
p4724
aVdatabas
p4725
aVstore
p4726
aVnetwork
p4727
aVdrive
p4728
aVuse
p4729
aVuser
p4730
aVtime
p4731
aVidea
p4732
aVsql
p4733
aVserver
p4734
aVcompact
p4735
aVedit
p4736
aVrealli
p4737
aVnice
p4738
aVintegr
p4739
aVnetwork
p4740
aVfirebird
p4741
aVseem
p4742
aVissu
p4743
aVnet
p4744
aVintegr
p4745
aVseem
p4746
aVrealli
p4747
aVfirst-class
p4748
aVlarg
p4749
aVundocu
p4750
aVblackfish
p4751
aVsql
p4752
aVlook
p4753
aVinterest
p4754
aVtrial
p4755
aVnet
p4756
aVversion
p4757
aVprice
p4758
aVok
p4759
aVsuggest
p4760
aVsometh
p4761
aVwork
p4762
aVnet
p4763
aVnetwork
p4764
aVneed
p4765
aVactual
p4766
aVinstal
p4767
aVserver
p4768
aVsoftwar
p4769
aa(lp4770
Vnet
p4771
aVtest
p4772
aVframework
p4773
aVadvic
p4774
aVim
p4775
aVlook
p4776
aVintroduc
p4777
aVunit
p4778
aVtest
p4779
aVframework
p4780
aVmix
p4781
aVjob
p4782
aVuse
p4783
aVvisual
p4784
aVstudio
p4785
aVmove
p4786
aVnext
p4787
aVmonth
p4788
aVwork
p4789
aVprimarili
p4790
aVc#
p4791
aVframework
p4792
aVkind
p4793
aVide
p4794
aVintegr
p4795
aVbest
p4796
aVim
p4797
aVopen
p4798
aVframework
p4799
aVdont
p4800
aVintegr
p4801
aVrel
p4802
aVsimpl
p4803
aVset
p4804
aVim
p4805
aVresist
p4806
aVway
p4807
aVsure
p4808
aVim
p4809
aVpush
p4810
aVisnt
p4811
aVpain
p4812
aVneck
p4813
aVhelp
p4814
aVcase
p4815
aVobviou
p4816
aVchoic
p4817
aVresearch
p4818
aVive
p4819
aVpoint
p4820
aVnunit
p4821
aVid
p4822
aVimpress
p4823
aVsomeon
p4824
aVactual
p4825
aVuse
p4826
aVrecommend
p4827
aVteam
p4828
aVanyon
p4829
aVuse
p4830
aVnunit
p4831
aVpitfal
p4832
aVlimit
p4833
aVawar
p4834
aVgood
p4835
aVoption
p4836
aVyouv
p4837
aVuse
p4838
aVnunit
p4839
aVid
p4840
aVgreatli
p4841
aVappreci
p4842
aVidea
p4843
aVstrength
p4844
aVweak
p4845
aa(lp4846
Vdecent
p4847
aVsimpl
p4848
aVgis/map
p4849
aVcompon
p4850
aVaspnet
p4851
aVneed
p4852
aVdisplay
p4853
aVmap
p4854
aVstate
p4855
aVdiffer
p4856
aVcolor
p4857
aVaccord
p4858
aVunderli
p4859
aVdata
p4860
aVid
p4861
aVmap
p4862
aVcontain
p4863
aVfacil
p4864
aVsubscrib
p4865
aVhover/click
p4866
aVevent
p4867
aVstate
p4868
aVjavascript
p4869
aVpresum
p4870
aVuse
p4871
aVimagemap
p4872
aVdata
p4873
aVwont
p4874
aVchang
p4875
aVkind
p4876
aVajax-i
p4877
aVway
p4878
aVideal
p4879
aVcompon
p4880
aVgener
p4881
aVstatic
p4882
aVimag
p4883
aVcacheabl
p4884
aVsuggest
p4885
aa(lp4886
Vclass
p4887
aVview
p4888
aVdjango
p4889
aVdjango
p4890
aVview
p4891
aVpoint
p4892
aVfunction
p4893
aVproblem
p4894
aVwant
p4895
aVchang
p4896
aVbit
p4897
aVfunction
p4898
aVye
p4899
aVkeyword
p4900
aVargument
p4901
aVstatement
p4902
aVfunction
p4903
aVthink
p4904
aVobject
p4905
aVorient
p4906
aVapproach
p4907
aVexampl
p4908
aVpage
p4909
aVdisplay
p4910
aVuser
p4911
aVpage
p4912
aVsimilar
p4913
aVpage
p4914
aVdisplay
p4915
aVgroup
p4916
aVsimilar
p4917
aVuse
p4918
aVdata
p4919
aVmodel
p4920
aVgroup
p4921
aVmember
p4922
aVetc
p4923
aVway
p4924
aVpoint
p4925
aVview
p4926
aVclass
p4927
aVmethod
p4928
aVextend
p4929
aVclass
p4930
aVanyon
p4931
aVtri
p4932
aVapproach
p4933
aVidea
p4934
aa(lp4935
Vformat
p4936
aVstring
p4937
aVtitl
p4938
aVcase
p4939
aVformat
p4940
aVstring
p4941
aVtitl
p4942
aVcase
p4943
aa(lp4944
Vnew
p4945
aVobject
p4946
aVinstanc
p4947
aVtype
p4948
aVtype
p4949
aVobject
p4950
aVcompile-tim
p4951
aVneed
p4952
aVcreat
p4953
aVinstanc
p4954
aVtype
p4955
aVnew
p4956
aVobject
p4957
aVinstanc
p4958
aVtype
p4959
aa(lp4960
Vlocalis
p4961
aVdate
p4962
aVformat
p4963
aVdescriptor
p4964
aVbest
p4965
aVway
p4966
aVlocalis
p4967
aVdate
p4968
aVformat
p4969
aVdescriptor
p4970
aVanyon
p4971
aVcultur
p4972
aVuse
p4973
aVmm/dd/yyyy
p4974
aVformat
p4975
aVannoy
p4976
aVenter
p4977
aVdate
p4978
aVformat
p4979
aVnet
p4980
aVframework
p4981
aVprovid
p4982
aVgood
p4983
aVlocalis
p4984
aVsupport
p4985
aVtrivial
p4986
aVpars
p4987
aVdate
p4988
aVaccord
p4989
aVuser
p4990
aVcultur
p4991
aVwant
p4992
aVdisplay
p4993
aVhelp
p4994
aVhint
p4995
aVformat
p4996
aVrequir
p4997
aVespeci
p4998
aVdistinguish
p4999
aVyy
p5000
aVyyyi
p5001
aVinterchang
p5002
aVcultur
p5003
aVbest
p5004
aVway
p5005
aVresult
p5006
aVsens
p5007
aVuser
p5008
aVie
p5009
aVdd/m/yyi
p5010
aVconfus
p5011
aVchang
p5012
aVcase
p5013
aVswitch
p5014
aVletter
p5015
aa(lp5016
Vpython
p5017
aVmysql
p5018
aVpython
p5019
aVwork
p5020
aVpostgresql
p5021
aVcannot
p5022
aVwork
p5023
aVmysql
p5024
aVmain
p5025
aVproblem
p5026
aVshare
p5027
aVhost
p5028
aVaccount
p5029
aVabil
p5030
aVinstal
p5031
aVthing
p5032
aVdjango
p5033
aVpysql
p5034
aVgener
p5035
aVfail
p5036
aVinstal
p5037
aVcomput
p5038
aVmayb
p5039
aVgood
p5040
aVcant
p5041
aVinstal
p5042
aVhost
p5043
aVfound
p5044
aVbpgsql
p5045
aVrealli
p5046
aVgood
p5047
aVrequir
p5048
aVinstal
p5049
aVsingl
p5050
aVfile
p5051
aVlook
p5052
aVread
p5053
aVcall
p5054
aVfunction
p5055
aVanybodi
p5056
aVsometh
p5057
aVmysql
p5058
aa(lp5059
Vsolv
p5060
aVlinear
p5061
aVequat
p5062
aVneed
p5063
aVprogrammat
p5064
aVsolv
p5065
aVsystem
p5066
aVlinear
p5067
aVequat
p5068
aVc
p5069
aVobject
p5070
aVc
p5071
aVneed
p5072
aVc++
p5073
aVexampl
p5074
aVequat
p5075
aVid
p5076
aVbest
p5077
aVapproxim
p5078
aVb
p5079
aVtx
p5080
aa(lp5081
Vuse
p5082
aVpython
p5083
aVitertoolsgroupbi
p5084
aVhavent
p5085
aVabl
p5086
aVunderstand
p5087
aVexplan
p5088
aVactual
p5089
aVuse
p5090
aVpython
p5091
aVfunction
p5092
aVim
p5093
aVtri
p5094
aVlist
p5095
aVcase
p5096
aVchildren
p5097
aVobjectifi
p5098
aVelement
p5099
aVdivid
p5100
aVgroup
p5101
aVbase
p5102
aVcriteria
p5103
aViter
p5104
aVgroup
p5105
aVsepar
p5106
aVive
p5107
aVreview
p5108
aVdocument
p5109
aVexampl
p5110
aVive
p5111
aVtroubl
p5112
aVtri
p5113
aVappli
p5114
aVsimpl
p5115
aVlist
p5116
aVnumber
p5117
aVuse
p5118
aVtechniqu
p5119
aVuse
p5120
aVpointer
p5121
aVgood
p5122
aV"prerequisite"
p5123
aVread
p5124
aVappreci
p5125
aa(lp5126
Vobject
p5127
aVorient
p5128
aVvs
p5129
aVrelat
p5130
aVdatabas
p5131
aVobject
p5132
aVorient
p5133
aVdatabas
p5134
aVseem
p5135
aVrealli
p5136
aVcool
p5137
aVidea
p5138
aVneed
p5139
aVworri
p5140
aVmap
p5141
aVdomain
p5142
aVmodel
p5143
aVdatabas
p5144
aVmodel
p5145
aVmess
p5146
aVsql
p5147
aVorm
p5148
aVtool
p5149
aVway
p5150
aVunderstand
p5151
aVrelat
p5152
aVdb
p5153
aVoffer
p5154
aVadvantag
p5155
aVmassiv
p5156
aVamount
p5157
aVdata
p5158
aVsearch
p5159
aVindex
p5160
aVneed
p5161
aVmind
p5162
aV%
p5163
aVwebsit
p5164
aVmassiv
p5165
aVenterpris
p5166
aVissu
p5167
aVneed
p5168
aVthought
p5169
aVarent
p5170
aVoo
p5171
aVdb
p5172
aVwide
p5173
aVuse
p5174
aa(lp5175
Vasp
p5176
aVneed
p5177
aVuse
p5178
aVsftp
p5179
aVasp
p5180
aVclassic
p5181
aVnet
p5182
aVway
p5183
aVsftp
p5184
aVserver
p5185
aVupload
p5186
aVdownload
p5187
aVcoupl
p5188
aVfile
p5189
aVkick
p5190
aVuser
p5191
aVpeopl
p5192
aVuse
p5193
aVsftp
p5194
aVasp
p5195
aVclassic
p5196
aVnecessarili
p5197
aVoppos
p5198
aVpurchas
p5199
aVcontrol
p5200
aa(lp5201
Vvisual
p5202
aVstudio
p5203
aVsetup
p5204
aVproject
p5205
aVuser
p5206
aVregistri
p5207
aVset
p5208
aVim
p5209
aVtri
p5210
aVmaintain
p5211
aVsetup
p5212
aVproject
p5213
aVye
p5214
aVlegaci
p5215
aVapplic
p5216
aVproblem
p5217
aVmoment
p5218
aVneed
p5219
aVwrite
p5220
aVregistri
p5221
aVentri
p5222
aVeveri
p5223
aVuser
p5224
aVcomput
p5225
aVneed
p5226
aVdefault
p5227
aVuser
p5228
aVset
p5229
aVchang
p5230
aVuser
p5231
aVfeel
p5232
aVisnt
p5233
aVpossibl
p5234
aVisnt
p5235
aVsometh
p5236
aVinstal
p5237
aVsometh
p5238
aVapplic
p5239
aVuser
p5240
aVprofil
p5241
aVcreat
p5242
aVinstal
p5243
aVmind
p5244
aVwant
p5245
aVchang
p5246
aVlittl
p5247
aVpossibl
p5248
aVapplic
p5249
aVquestion
p5250
aVpossibl
p5251
aVregistri
p5252
aVentri
p5253
aVeveri
p5254
aVuser
p5255
aVsetup
p5256
aVproject
p5257
aVmoment
p5258
aVproject
p5259
aVlist
p5260
aVregistri
p5261
aVroot
p5262
aVkey
p5263
aVuser/machin
p5264
aVhive
p5265
aVdont
p5266
aVrealli
p5267
aVanyth
p5268
aVuser
p5269
aVroot
p5270
aVkey
p5271
aVhavent
p5272
aVuser/machin
p5273
aVhive
p5274
aVanyon
p5275
aVperhap
p5276
aVsolv
p5277
aVproblem
p5278
aa(lp5279
Veffici
p5280
aVsort
p5281
aVsum
p5282
aVsort
p5283
aVlist
p5284
aVascend
p5285
aVlist
p5286
aVnumber
p5287
aVeffici
p5288
aValgorithm
p5289
aVthink
p5290
aVascend
p5291
aVlist
p5292
aVsum
p5293
aVeveri
p5294
aVnumber
p5295
aVlist
p5296
aVduplic
p5297
aVresult
p5298
aVlist
p5299
aVirrelev
p5300
aVremov
p5301
aVavoid
p5302
aVclear
p5303
aVim
p5304
aVinterest
p5305
aValgorithm
p5306
aVfeel
p5307
aVfree
p5308
aVpost
p5309
aVcode
p5310
aVlanguag
p5311
aVparadigm
p5312
aa(lp5313
Velegantli
p5314
aVexpress
p5315
aVleft
p5316
aVjoin
p5317
aVaggreg
p5318
aVsql
p5319
aVlinq
p5320
aVqueri
p5321
aVsql
p5322
aa(lp5323
Vedit
p5324
aVdatabas
p5325
aVrecord
p5326
aVmultipl
p5327
aVuser
p5328
aVdesign
p5329
aVdatabas
p5330
aVtabl
p5331
aVnormalis
p5332
aVms
p5333
aVsql
p5334
aVserver
p5335
aVcreat
p5336
aVstandalon
p5337
aVwindow
p5338
aVfront
p5339
aVend
p5340
aVapplic
p5341
aVuse
p5342
aVhand
p5343
aVuser
p5344
aVedit
p5345
aVinform
p5346
aVweb
p5347
aVinterfac
p5348
aVsearch
p5349
aVaccross
p5350
aVproduct
p5351
aVarea
p5352
aVdate
p5353
aVconcern
p5354
aVuser
p5355
aVstart
p5356
aVedit
p5357
aVrecord
p5358
aVlast
p5359
aVcommit
p5360
aVupdat
p5361
aVwinner
p5362
aVimport
p5363
aVinform
p5364
aVnumber
p5365
aVsolut
p5366
aVmind
p5367
aVim
p5368
aVsure
p5369
aVcreat
p5370
aVbigger
p5371
aVheadach
p5372
aVhope
p5373
aVuser
p5374
aVedit
p5375
aVrecord
p5376
aVtime
p5377
aVhap
p5378
aVedit
p5379
aVroutin
p5380
aVstore
p5381
aVcopi
p5382
aVorigin
p5383
aVdata
p5384
aVupdat
p5385
aVcompar
p5386
aVuser
p5387
aVfinish
p5388
aVedit
p5389
aVdiffer
p5390
aVshow
p5391
aVuser
p5392
aVcomfirm
p5393
aVupdat
p5394
aVrequir
p5395
aVcopi
p5396
aVdata
p5397
aVstore
p5398
aVlast
p5399
aVupdat
p5400
aVdatetim
p5401
aVcolumn
p5402
aVcheck
p5403
aVmatch
p5404
aVupdat
p5405
aVshow
p5406
aVdiffer
p5407
aVrequir
p5408
aVnew
p5409
aVcolumn
p5410
aVrelev
p5411
aVtabl
p5412
aVcreat
p5413
aVedit
p5414
aVtabl
p5415
aVregist
p5416
aVuser
p5417
aVstart
p5418
aVedit
p5419
aVrecord
p5420
aVcheck
p5421
aVprevent
p5422
aVuser
p5423
aVedit
p5424
aVrecord
p5425
aVrequir
p5426
aVcar
p5427
aVthought
p5428
aVprogram
p5429
aVflow
p5430
aVprevent
p5431
aVdeadlock
p5432
aVrecord
p5433
aVbecom
p5434
aVlock
p5435
aVuser
p5436
aVcrash
p5437
aVprogram
p5438
aVsolut
p5439
aa(lp5440
Vcruisecontrolnet
p5441
aVmsbuild
p5442
aV/poutputpath
p5443
aVccnetartifactdirectori
p5444
aVim
p5445
aVtri
p5446
aVsetup
p5447
aVcruisecontrolnet
p5448
aVmoment
p5449
aVwork
p5450
aVnice
p5451
aVproblem
p5452
aVmsbuild
p5453
aVtask
p5454
aVaccord
p5455
aVdocument
p5456
aVpass
p5457
aVccnetartifactdirectori
p5458
aVmsbuild
p5459
aVuse
p5460
aVtri
p5461
aVwork
p5462
aVfact
p5463
aVkill
p5464
aVservic
p5465
aVerror
p5466
aVthoughtworkscruisecontrolcoreconfigpreprocessorevaluationexcept
p5467
aVrefer
p5468
aVunknown
p5469
aVsymbol
p5470
aVccnetartifactdirectori
p5471
aVdocument
p5472
aVspars
p5473
aVgoogl
p5474
aVund
p5475
aVmainli
p5476
aVoffer
p5477
aVmodifi
p5478
aVsln
p5479
aVproject
p5480
aVfile
p5481
aVwant
p5482
aVavoid
p5483
aVorder
p5484
aVabl
p5485
aVmanual
p5486
aVbuild
p5487
aVproject
p5488
aVrealli
p5489
aVprefer
p5490
aa(lp5491
Vdetect
p5492
aVfont
p5493
aVuse
p5494
aVweb
p5495
aVpage
p5496
aVsuppos
p5497
aVcss
p5498
aVrule
p5499
aVhtml
p5500
aVdetect
p5501
aVdefin
p5502
aVfont
p5503
aVuse
p5504
aVuser
p5505
aVbrowser
p5506
aVedit
p5507
aVpeopl
p5508
aVwonder
p5509
aVwant
p5510
aVfont
p5511
aVdetect
p5512
aVcontain
p5513
aVglyph
p5514
aVavail
p5515
aVfont
p5516
aVuser
p5517
aVwant
p5518
aVdisplay
p5519
aVlink
p5520
aVask
p5521
aVuser
p5522
aVdownload
p5523
aVfont
p5524
aVuse
p5525
aVweb
p5526
aVapplic
p5527
aVcurrent
p5528
aVdisplay
p5529
aVdownload
p5530
aVfont
p5531
aVlink
p5532
aVuser
p5533
aVdisplay
p5534
aVpeopl
p5535
aVcorrect
p5536
aVfont
p5537
aVinstal
p5538
aa(lp5539
Vnet
p5540
aVxml
p5541
aVcomment
p5542
aVapi
p5543
aVdocument
p5544
aVeasi
p5545
aVway
p5546
aVproduc
p5547
aVmsdn-style
p5548
aVdocument
p5549
aVvisual
p5550
aVstudio
p5551
aVxml
p5552
aVoutput
p5553
aVim
p5554
aVpatient
p5555
aVset
p5556
aVgood
p5557
aVxslt
p5558
aVim
p5559
aVperson
p5560
aVcross
p5561
aVbridg
p5562
aVtri
p5563
aVset
p5564
aVsandcastl
p5565
aVrecent
p5566
aVrealli
p5567
aVeye
p5568
aVcross
p5569
aVmiss
p5570
aVsometh
p5571
aVimport
p5572
aVprocess
p5573
aVway
p5574
aVinvolv
p5575
aVsomebodi
p5576
aVrealli
p5577
aVnice
p5578
aVdead-simpl
p5579
aVsolut
p5580
aVim
p5581
aVreiter
p5582
aVthink
p5583
aVformat
p5584
aVparagraph
p5585
aVnon-invit
p5586
aVread
p5587
aVsandcastl
p5588
aVtri
p5589
aVrealli
p5590
aVhard
p5591
aVtime
p5592
aVset
p5593
aVrealli
p5594
aVmind
p5595
aVsometh
p5596
aVmuch
p5597
aVsimpler
p5598
aVdont
p5599
aVunderstand
p5600
aVsandcastl
p5601
aVprocess
p5602
aVseem
p5603
aVaw
p5604
aVlot
p5605
aVextra
p5606
aVbaggag
p5607
aVproduc
p5608
aVsometh
p5609
aVnice
p5610
aVtester
p5611
aVwork
p5612
aa(lp5613
Vgit
p5614
aVsubvers
p5615
aVive
p5616
aVuse
p5617
aVsubvers
p5618
aVyear
p5619
aVuse
p5620
aVsourcesaf
p5621
aVlove
p5622
aVsubvers
p5623
aVcombin
p5624
aVtortoisesvn
p5625
aVcant
p5626
aVrealli
p5627
aVimagin
p5628
aVgrow
p5629
aVnumber
p5630
aVclaim
p5631
aVsubvers
p5632
aVproblem
p5633
aVmove
p5634
aVnew
p5635
aVbreed
p5636
aVdistribut
p5637
aVversion
p5638
aVcontrol
p5639
aVsystem
p5640
aVgit
p5641
aVgit
p5642
aVimprov
p5643
aVsubvers
p5644
aa(lp5645
Vphp
p5646
aVvariabl
p5647
aVpass
p5648
aVvalu
p5649
aVrefer
p5650
aVphp
p5651
aVvariabl
p5652
aVpass
p5653
aVvalu
p5654
aVrefer
p5655
aa(lp5656
Vdebug
p5657
aVphp
p5658
aVscript
p5659
aVdebug
p5660
aVphp
p5661
aVscript
p5662
aVawar
p5663
aVbasic
p5664
aVdebug
p5665
aVuse
p5666
aVerror
p5667
aVreport
p5668
aVbreakpoint
p5669
aVdebug
p5670
aVphpeclips
p5671
aVquit
p5672
aVuse
p5673
aVgood/bett
p5674
aVtechniqu
p5675
aa(lp5676
Vinternation
p5677
aVproject
p5678
aVimplement
p5679
aVinternation
p5680
aVactual
p5681
aVproject
p5682
aVyouv
p5683
aVwork
p5684
aVinterest
p5685
aVsoftwar
p5686
aVcross-cultur
p5687
aVread
p5688
aVfamou
p5689
aVpost
p5690
aVjoel
p5691
aVabsolut
p5692
aVminimum
p5693
aVeveri
p5694
aVsoftwar
p5695
aVabsolut
p5696
aVposit
p5697
aVunicod
p5698
aVcharact
p5699
aVset
p5700
aVexcuses!
p5701
aVhowev
p5702
aVabl
p5703
aVadvantag
p5704
aVreal
p5705
aVproject
p5706
aVbesid
p5707
aVsure
p5708
aVuse
p5709
aVunicod
p5710
aVstring
p5711
aVpossibl
p5712
aVstring
p5713
aVunicod
p5714
aVensur
p5715
aVunderstand
p5716
aVencod
p5717
aVeveryth
p5718
aVwork
p5719
aVtip
p5720
aViceberg
p5721
aVeveryth
p5722
aVwork
p5723
aVdate
p5724
aVuse
p5725
aVcontrol
p5726
aVset
p5727
aVenglish
p5728
aVspeak
p5729
aVpeopl
p5730
aVwasnt
p5731
aVsometh
p5732
aVtime
p5733
aVwork
p5734
aVpush
p5735
aVproject
p5736
aVlive
p5737
aVlook
p5738
aVtip
p5739
aVwar
p5740
aVstori
p5741
aVpeopl
p5742
aVsoftwar
p5743
aVlocal
p5744
aVreal
p5745
aVworld
p5746
aVproject
p5747
aa(lp5748
Vbest
p5749
aVsubvers
p5750
aVclient
p5751
aVmac
p5752
aVos
p5753
aVwindow
p5754
aVtortoisesvn
p5755
aVdaddi
p5756
aVquestion
p5757
aVmac
p5758
aVsimpl
p5759
aVintegr
p5760
aVfair
p5761
aVchoic
p5762
aVtool
p5763
aVgui
p5764
aVclient
p5765
aVsubvers
p5766
aVsvn
p5767
aVworth
p5768
aVcheck
p5769
aa(lp5770
Vhtml
p5771
aVword-break
p5772
aVdash
p5773
aVrel
p5774
aVsimpl
p5775
aVcss
p5776
aVstring
p5777
aVstay
p5778
aVconstrain
p5779
aVwidth
p5780
aVsimpli
p5781
aVwrap
p5782
aVnewlin
p5783
aVhyphen
p5784
aa(lp5785
Vclient
p5786
aVcollat
p5787
aVsql
p5788
aVserver
p5789
aVupgrad
p5790
aVexist
p5791
aVprogram
p5792
aVpurchas
p5793
aVnew
p5794
aVprogram
p5795
aVuse
p5796
aVvendor
p5797
aVhost
p5798
aVdatabas
p5799
aVneed
p5800
aVenterpris
p5801
aVversion
p5802
aVsoftwar
p5803
aVclient
p5804
aVuse
p5805
aVdiffer
p5806
aVcollat
p5807
aVconnect
p5808
aVenterpris
p5809
aVsupport
p5810
aVcannot
p5811
aVanyth
p5812
aVmss
p5813
aVsite
p5814
aVsupport
p5815
aVhonestli
p5816
aVdont
p5817
aVwant
p5818
aVpay
p5819
aVextra
p5820
aVenterpris
p5821
aVstandard
p5822
aVedit
p5823
aVwork
p5824
aVmiss
p5825
aVtalk
p5826
aVfeatur
p5827
aVsql
p5828
aVserver
p5829
aVsuspect
p5830
aVvendor
p5831
aVtri
p5832
aVupsel
p5833
aa(lp5834
Vlearn
p5835
aVpython
p5836
aVgood
p5837
aVexampl
p5838
aVcode
p5839
aVdabbl
p5840
aVcoupl
p5841
aVmonth
p5842
aVread
p5843
aVonlin
p5844
aVdocs/tutori
p5845
aVstart
p5846
aVplay
p5847
aVbit
p5848
aVfeel
p5849
aVstart
p5850
aVleav
p5851
aVform
p5852
aVtoddler
p5853
aVyear
p5854
aVreadi
p5855
aVseriou
p5856
aVcode
p5857
aVeveryth
p5858
aVgener
p5859
aVencapsul
p5860
aVsingl
p5861
aVscript
p5862
aVlarg
p5863
aVunwieldi
p5864
aVdont
p5865
aVstart
p5866
aVrealli
p5867
aVexcel
p5868
aVexampl
p5869
aVproper
p5870
aVpython
p5871
aVcode
p5872
aVstyle
p5873
aVorgan
p5874
aVetc
p5875
aVideal
p5876
aVassoci
p5877
aVdecis
p5878
aVidea
p5879
aVlook
p5880
aVnext
p5881
aVprefer
p5882
aVsimpl
p5883
aVconsol
p5884
aVapp
p5885
aVextra
p5886
aVpy
p5887
aVfile
p5888
aVmayb
p5889
aVpackag
p5890
aVgood
p5891
aVmeasur
p5892
aVoh
p5893
aVthing
p5894
aVreason
p5895
aVquit
p5896
aVbit
p5897
aVexperi
p5898
aVjava
p5899
aVnet
p5900
aVgener
p5901
aVprefer
p5902
aVclass
p5903
aVdefinit
p5904
aVsourc
p5905
aVfile
p5906
aVrare
p5907
aVseem
p5908
aVcase
p5909
aVpython
p5910
aVworld
p5911
aVleast
p5912
aVlimit
p5913
aVexposur
p5914
aVdoesnt
p5915
aVsmell
p5916
aVright
p5917
aVmayb
p5918
aVenterpris
p5919
aVpython
p5920
aVhobbyist
p5921
aVpython
p5922
aVsometh
p5923
aa(lp5924
Vconnect
p5925
aVdatabas
p5926
aVloop
p5927
aVrecordset
p5928
aVc#
p5929
aVsimplest
p5930
aVway
p5931
aVconnect
p5932
aVqueri
p5933
aVdatabas
p5934
aVset
p5935
aVrecord
p5936
aVc#
p5937
aa(lp5938
Vstring
p5939
aVliter
p5940
aVescap
p5941
aVcharact
p5942
aVpostgresql
p5943
aVattempt
p5944
aVinsert
p5945
aVescap
p5946
aVcharact
p5947
aVtabl
p5948
aVresult
p5949
aVwarn
p5950
aVexampl
p5951
aVproduc
p5952
aVwarn
p5953
aVuse
p5954
aVpsql
p5955
aVanyon
p5956
aa(lp5957
Vunhandl
p5958
aVhandler
p5959
aVnet
p5960
aVim
p5961
aVmaintain
p5962
aVapplic
p5963
aVthing
p5964
aVive
p5965
aVtask
p5966
aVsure
p5967
aVuser
p5968
aVdoesnt
p5969
aVunfriendli
p5970
aVerror
p5971
aVnotif
p5972
aVive
p5973
aVad
p5974
aVhandler
p5975
aVcall
p5976
aVproblem
p5977
aVstandard
p5978
aVerror
p5979
aVdialog
p5980
aVdisplay
p5981
aVhandler
p5982
aVcall
p5983
aVjeff
p5984
aVtalk
p5985
aVproblem
p5986
aVblog
p5987
aVsolut
p5988
aVstandard
p5989
aVway
p5990
aVhandl
p5991
aVuncaught
p5992
aVdisplay
p5993
aVfriendli
p5994
aVdialog
p5995
aVbox
p5996
aVedit
p5997
aVjeff
p5998
aVrespons
p5999
aVmark
p6000
aVcorrect
p6001
aVanswer
p6002
aVlink
p6003
aVprovid
p6004
aVcomplet
p6005
aVinform
p6006
aVrequir
p6007
aa(lp6008
Vuse
p6009
aVmutex
p6010
aVvisual
p6011
aVbasic
p6012
aVimport
p6013
aVkernel
p6014
aVlibrari
p6015
aVfunction
p6016
aVavail
p6017
aVquit
p6018
aVsure
p6019
aVvariou
p6020
aVparamet
p6021
aVreturn
p6022
aVvalu
p6023
aVclassic
p6024
aVvisual
p6025
aVbasic
p6026
aVvisual
p6027
aVbasicnet
p6028
aVprobabl
p6029
aVwork
p6030
aVlanguag
p6031
aVform
p6032
aVanswer
p6033
aa(lp6034
Vad
p6035
aVmethod
p6036
aVexist
p6037
aVobject
p6038
aVive
p6039
aVread
p6040
aVpossibl
p6041
aVmethod
p6042
aVexist
p6043
aVobject
p6044
aVeg
p6045
aVclass
p6046
aVdefinit
p6047
aVpython
p6048
aVthink
p6049
aVcall
p6050
aVmonkey
p6051
aVpatch
p6052
aVcase
p6053
aVduck
p6054
aVpunch
p6055
aVunderstand
p6056
aVgood
p6057
aVdecis
p6058
aVdont
p6059
aVpython
p6060
aVlanguag
p6061
aVchoic
p6062
aVupdat
p6063
aV//
p6064
aVest
p6065
aVlook
p6066
aVgood
p6067
aVanswer
p6068
aVjohn
p6069
aVdowney
p6070
aVtri
p6071
aVend
p6072
aVtrue
p6073
aVmethod
p6074
aVexampl
p6075
aVdefin
p6076
aVnew
p6077
aVpatch
p6078
aVfunction
p6079
aVargument
p6080
aVself
p6081
aVwrite
p6082
aVactual
p6083
aVcode
p6084
aVway
p6085
aVpatch
p6086
aVclass
p6087
aVmethod
p6088
aVask
p6089
aVargument
p6090
aVname
p6091
aVself
p6092
aVdoesnt
p6093
aVautomag
p6094
aVrecogn
p6095
aVident
p6096
aVclass
p6097
aVdefin
p6098
aVclass
p6099
aVdefinit
p6100
aVmean
p6101
aVcall
p6102
aVclasspatchclass
p6103
aVclasspatch
p6104
aVwant
p6105
aVfunction
p6106
aVtrue
p6107
aVmethod
p6108
aVlook
p6109
aVpython
p6110
aVisnt
p6111
aVrealli
p6112
aVtreat
p6113
aVmethod
p6114
aVvariabl
p6115
aVfunction
p6116
aVcallabl
p6117
aVway
p6118
aVattach
p6119
aVactual
p6120
aVmethod
p6121
aVclass
p6122
aVoh
p6123
aVryan
p6124
aVisnt
p6125
aVexactli
p6126
aVlook
p6127
aVisnt
p6128
aVbuiltin
p6129
aVfunction
p6130
aVquit
p6131
aVcool
p6132
aa(lp6133
Vroot
p6134
aVpermiss
p6135
aVfile
p6136
aVinsid
p6137
aVvi
p6138
aVedit
p6139
aVconfig
p6140
aVfile
p6141
aVill
p6142
aVopen
p6143
aVvi
p6144
aVrealiz
p6145
aVdidnt
p6146
aVtype
p6147
aVway
p6148
aVvi
p6149
aVsudo
p6150
aVprivileg
p6151
aVfile
p6152
aVseem
p6153
aVrecal
p6154
aVsometh
p6155
aVlook
p6156
aVstuff
p6157
aVvi
p6158
aVcant
p6159
aa(lp6160
Vvalu
p6161
aVbuilt
p6162
aVencod
p6163
aVviewstat
p6164
aVneed
p6165
aVgrab
p6166
aVbase-encod
p6167
aVrepresent
p6168
aVviewstat
p6169
aVobvious
p6170
aVavail
p6171
aVfairli
p6172
aVrequest
p6173
aVlifecycl
p6174
aVok
p6175
aVexampl
p6176
aVoutput
p6177
aVpage
p6178
aVinclud
p6179
aVneed
p6180
aVway
p6181
aVserver
p6182
aVside
p6183
aVvalu
p6184
aVclarifi
p6185
aVneed
p6186
aVvalu
p6187
aVpage
p6188
aVrender
p6189
aVpostback
p6190
aVeg
p6191
aVneed
p6192
aVviewstat
p6193
aVvalu
p6194
aVsent
p6195
aVclient
p6196
aVviewstat
p6197
aVim
p6198
aa(lp6199
Vfix
p6200
aVunprocess
p6201
aVview
p6202
aVpath
p6203
aVfound
p6204
aVerror
p6205
aVexceptionnotifi
p6206
aVplugin
p6207
aVrail
p6208
aVupgrad
p6209
aVrail
p6210
aVwebsit
p6211
aVexceptionnotifi
p6212
aVplugin
p6213
aVlonger
p6214
aVwork
p6215
aVcomplain
p6216
aVerror
p6217
aVcaus
p6218
aVfix
p6219
aa(lp6220
Vcountri
p6221
aVaccord
p6222
aVcertain
p6223
aVip
p6224
aVanyon
p6225
aVsimpl
p6226
aVway
p6227
aVretriev
p6228
aVcountri
p6229
aVip
p6230
aVaddress
p6231
aVprefer
p6232
aVformat
p6233
aa(lp6234
Vdisplay
p6235
aVflash
p6236
aVcontent
p6237
aVc#
p6238
aVwinform
p6239
aVapplic
p6240
aVbest
p6241
aVway
p6242
aVdisplay
p6243
aVcontent
p6244
aVc#
p6245
aVwinform
p6246
aVapplic
p6247
aVcreat
p6248
aVuser
p6249
aVcontrol
p6250
aVsimilar
p6251
aVcurrent
p6252
aVabl
p6253
aVdisplay
p6254
aVimag
p6255
aVflash
p6256
aVcontent
p6257
aVgreat
p6258
aVabl
p6259
aVload
p6260
aVflash
p6261
aVcontent
p6262
aVstream
p6263
aVsort
p6264
aVfile
p6265
aVdisk
p6266
aa(lp6267
Vdelet
p6268
aVfile
p6269
aVlock
p6270
aVprocess
p6271
aVc#
p6272
aVim
p6273
aVlook
p6274
aVway
p6275
aVdelet
p6276
aVfile
p6277
aVlock
p6278
aVprocess
p6279
aVuse
p6280
aVc#
p6281
aVsuspect
p6282
aVmethod
p6283
aVabl
p6284
aVprocess
p6285
aVlock
p6286
aVfile
p6287
aVperhap
p6288
aVtrack
p6289
aVhandl
p6290
aVim
p6291
aVsure
p6292
aVc#
p6293
aVprocess
p6294
aVabl
p6295
aVcomplet
p6296
aVfile
p6297
aVdelet
p6298
aVuse
p6299
aa(lp6300
Veasy-to-us
p6301
aVregular
p6302
aVexpress
p6303
aVsupport
p6304
aVc++
p6305
aVim
p6306
aVlook
p6307
aVrobust
p6308
aVeasy-to-us
p6309
aVregular
p6310
aVexpress
p6311
aVevalu
p6312
aVnativ
p6313
aVc++
p6314
aVplatform-independ
p6315
aVwindows-specif
p6316
aVrequir
p6317
aVcant
p6318
aVuse
p6319
aVboost
p6320
aVace
p6321
aVregex
p6322
aVlibrari
p6323
aVunfortun
p6324
aVcant
p6325
aVuse
p6326
aVnet
p6327
aVregex
p6328
aVmanag
p6329
aVcode
p6330
aVmain
p6331
aVrequir
p6332
aVstandalon
p6333
aVopen
p6334
aa(lp6335
Vdoesnt
p6336
aVsql
p6337
aVfull
p6338
aVtext
p6339
aVindex
p6340
aVreturn
p6341
aVresult
p6342
aVword
p6343
aVcontain
p6344
aVinstanc
p6345
aVqueri
p6346
aVuse
p6347
aVsql
p6348
aVserver
p6349
aVfull
p6350
aVtext
p6351
aVindex
p6352
aVdefin
p6353
aVuse
p6354
aVcolumn
p6355
aVsearchfield
p6356
aVreturn
p6357
aVresult
p6358
aVuse
p6359
aVbeliev
p6360
aVspecial
p6361
aVletter
p6362
aVfreetext
p6363
aVwork
p6364
aVcorrectli
p6365
aVqueri
p6366
aa(lp6367
Vlittl
p6368
aVdivers
p6369
aVfloat
p6370
aVpoint
p6371
aVimprecis
p6372
aVpart
p6373
aVmathematician
p6374
aVagre
p6375
aVe\u03c0i
p6376
aV+
p6377
aV=
p6378
aVhowev
p6379
aVfloat
p6380
aVpoint
p6381
aVimplement
p6382
aVdisagre
p6383
aVsettl
p6384
aVdisput
p6385
aVim
p6386
aVkeen
p6387
aVhear
p6388
aVdiffer
p6389
aVlanguag
p6390
aVimplement
p6391
aVvariou
p6392
aVmethod
p6393
aVresult
p6394
aVzero
p6395
aVpossibl
p6396
aVcreative!
p6397
aa(lp6398
Vdisplay
p6399
aVfloat
p6400
aVcube
p6401
aVuse
p6402
aVdirectx
p6403
aVopengl
p6404
aVid
p6405
aVdisplay
p6406
aV~
p6407
aVfloat
p6408
aVcube
p6409
aVuse
p6410
aVim
p6411
aVlook
p6412
aVsampl
p6413
aVsourc
p6414
aVcode
p6415
aVdescript
p6416
aVtechniqu
p6417
aVkind
p6418
aVthing
p6419
aVeasi
p6420
aVaccomplish
p6421
aVd
p6422
aVguru
p6423
aVtroubl
p6424
aVcube
p6425
aVdisplay
p6426
aVcorrectli
p6427
aVive
p6428
aVcomb
p6429
aVnet
p6430
aVgood
p6431
aVseri
p6432
aVtutori
p6433
aVtalk
p6434
aVprimit
p6435
aVcant
p6436
aVinform
p6437
aVlarg
p6438
aVnumber
p6439
aVprimit
p6440
aVforth
p6441
aa(lp6442
Vheap
p6443
aVcorrupt
p6444
aVwin;
p6445
aVlocat
p6446
aVim
p6447
aVwork
p6448
aVmultithread
p6449
aVc++
p6450
aVapplic
p6451
aVcorrupt
p6452
aVheap
p6453
aVusual
p6454
aVtool
p6455
aVlocat
p6456
aVcorrupt
p6457
aVseem
p6458
aVinapplic
p6459
aVold
p6460
aVbuild
p6461
aVmonth
p6462
aVold
p6463
aVsourc
p6464
aVcode
p6465
aVexhibit
p6466
aVbehaviour
p6467
aVrecent
p6468
aVreleas
p6469
aVtime
p6470
aVwasnt
p6471
aVnoticed;
p6472
aVdownsid
p6473
aVsourc
p6474
aVdelta
p6475
aVcant
p6476
aVuse
p6477
aVidentifi
p6478
aVbug
p6479
aVintroduc
p6480
aVlot
p6481
aVcode
p6482
aVchang
p6483
aVrepositori
p6484
aVprompt
p6485
aVcrash
p6486
aVbehaviuor
p6487
aVgener
p6488
aVthroughput
p6489
aVsystem
p6490
aVsocket
p6491
aVtransfer
p6492
aVdata
p6493
aVmung
p6494
aVintern
p6495
aVrepresent
p6496
aVset
p6497
aVtest
p6498
aVdata
p6499
aVperiod
p6500
aVcaus
p6501
aVapp
p6502
aVvariou
p6503
aVplace
p6504
aVvariou
p6505
aVcaus
p6506
aVinclud
p6507
aVheap
p6508
aValloc
p6509
aVfail
p6510
aVthu
p6511
aVheap
p6512
aVcorrupt
p6513
aVbehaviour
p6514
aVseem
p6515
aVrelat
p6516
aVcpu
p6517
aVpower
p6518
aVmemori
p6519
aVbandwidth;
p6520
aVmachin
p6521
aVeasier
p6522
aVcrash
p6523
aVdisabl
p6524
aVhyper-thread
p6525
aVcore
p6526
aVdual-cor
p6527
aVcore
p6528
aVreduc
p6529
aVrate
p6530
aVelimin
p6531
aVcorrupt
p6532
aVsuggest
p6533
aVtime
p6534
aVrelat
p6535
aVissu
p6536
aVrub
p6537
aVlightweight
p6538
aVdebug
p6539
aVenviron
p6540
aVheap
p6541
aVcorrupt
p6542
aVreason
p6543
aVeasi
p6544
aVreproduc
p6545
aVten
p6546
aVfifteen
p6547
aVminut
p6548
aVpass
p6549
aVsometh
p6550
aVfail
p6551
aVhorrend
p6552
aVsophist
p6553
aVdebug
p6554
aVenviron
p6555
aVration
p6556
aVpurifi
p6557
aVmicrosoft
p6558
aVapplic
p6559
aVverifi
p6560
aVsystem
p6561
aVbecom
p6562
aVmemory-spe
p6563
aVbound
p6564
aVdoesnt
p6565
aVcrash
p6566
aVmemory-bound
p6567
aVcpu
p6568
aVdisk
p6569
aVlight
p6570
aVprogram
p6571
aVfast
p6572
aVbox
p6573
aVconsum
p6574
aVg
p6575
aVram
p6576
aVive
p6577
aVchoic
p6578
aVabl
p6579
aVreproduc
p6580
aVproblem
p6581
aVidentifi
p6582
aVcaus
p6583
aVabl
p6584
aVidenifi
p6585
aVcaus
p6586
aVproblem
p6587
aVcant
p6588
aVreproduc
p6589
aVcurrent
p6590
aVbest
p6591
aVguess
p6592
aVnext
p6593
aVinsan
p6594
aVgrunti
p6595
aVbox
p6596
aVreplac
p6597
aVcurrent
p6598
aVdev
p6599
aVbox
p6600
aVgb
p6601
aVram
p6602
aVpossibl
p6603
aVrepro
p6604
aVcrash
p6605
aVcaus
p6606
aVmis-behaviour
p6607
aVpower
p6608
aVdebug
p6609
aVenvironment;
p6610
aVrewrit
p6611
aVoper
p6612
aVuse
p6613
aVmark
p6614
aVmemori
p6615
aVread-onli
p6616
aVos
p6617
aVcatch
p6618
aVbad-guy
p6619
aVwrite
p6620
aVfreed
p6621
aVmemori
p6622
aVye
p6623
aVsign
p6624
aVdesper
p6625
aVhell
p6626
aVrewrit
p6627
aVwonder
p6628
aVpurifi
p6629
aVet
p6630
aVal
p6631
aVship
p6632
aVpurifi
p6633
aVinstrument
p6634
aVbuilt
p6635
aVoption
p6636
aVcolleagu
p6637
aVwalk
p6638
aVpast
p6639
aVask
p6640
aV"stack
p6641
aVoverflow
p6642
aVstack
p6643
aVoverflow
p6644
aVnow!"
p6645
aVquestion
p6646
aVlocat
p6647
aVheap
p6648
aVcorruptor
p6649
aVupdat
p6650
aVbalanc
p6651
aVseem
p6652
aVgotten
p6653
aVway
p6654
aVsolv
p6655
aVproblem
p6656
aVmin
p6657
aVapp
p6658
aVgoe
p6659
aVhour
p6660
aVcrash
p6661
aVsuggest
p6662
aVheap
p6663
aVcorrupt
p6664
aVpersist
p6665
aVupdat
p6666
aVreleas
p6667
aVbuild
p6668
aVvisual
p6669
aVstudio
p6670
aVseem
p6671
aVdramat
p6672
aVbetter;
p6673
aVcurrent
p6674
aVsuspicion
p6675
aVrest
p6676
aVimplement
p6677
aVship
p6678
aVreproduc
p6679
aVproblem
p6680
aVproduc
p6681
aVdump
p6682
aVhelp
p6683
aVanalysi
p6684
aVill
p6685
aVnote
p6686
aVim
p6687
aVconcern
p6688
aVdr
p6689
aVwatson
p6690
aVtrip
p6691
aVfact
p6692
aVheap
p6693
aVstomp
p6694
aVtri
p6695
aVuse
p6696
aVdebug
p6697
aVtool
p6698
aVquit
p6699
aVpower
p6700
aVtime
p6701
aVlightweight
p6702
aVmoment
p6703
aVmuch
p6704
aVhelp
p6705
aVsometh
p6706
aVgoe
p6707
aVwrong
p6708
aVwant
p6709
aVcatch
p6710
aVvandal
p6711
aVact
p6712
aVmayb
p6713
aVtool
p6714
aVleast
p6715
aVnarrow
p6716
aVproblem
p6717
aVcertain
p6718
aVcompon
p6719
aVdont
p6720
aVhold
p6721
aVmuch
p6722
aVhope
p6723
aVdesper
p6724
aVtime
p6725
aVcall
p6726
aVsure
p6727
aVcompon
p6728
aVproject
p6729
aVcorrect
p6730
aVruntim
p6731
aVlibrari
p6732
aVset
p6733
aVcode
p6734
aVgener
p6735
aVcategori
p6736
aVvs
p6737
aVproject
p6738
aVset
p6739
aVim
p6740
aVill
p6741
aVspend
p6742
aVcoupl
p6743
aVhour
p6744
aVtomorrow
p6745
aVworkspac
p6746
aVproject
p6747
aVcheck
p6748
aVtheyr
p6749
aVcompil
p6750
aVlink
p6751
aVappropri
p6752
aVflag
p6753
aVupdat
p6754
aVsecond
p6755
aVselect
p6756
aVproject
p6757
aVdialog
p6758
aVunselect
p6759
aVproject
p6760
aVdont
p6761
aVright
p6762
aVset
p6763
aVright
p6764
aVset
p6765
aa(lp6766
Vprocess
p6767
aVsize
p6768
aVunix
p6769
aVcorrect
p6770
aVway
p6771
aVprocess
p6772
aVsize
p6773
aVuse
p6774
aVsometh
p6775
aVels
p6776
aa(lp6777
Vbayesian
p6778
aVfilter
p6779
aVspam
p6780
aVwonder
p6781
aVgood
p6782
aVclean
p6783
aVoo
p6784
aVimplement
p6785
aVbayesian
p6786
aVfilter
p6787
aVspam
p6788
aVtext
p6789
aVclassif
p6790
aVlearn
p6791
aVpurpos
p6792
aa(lp6793
Vensur
p6794
aVcaught
p6795
aVc++
p6796
aVdont
p6797
aVneed
p6798
aVcaught
p6799
aVcompil
p6800
aVtime
p6801
aVerror
p6802
aVcall
p6803
aVfunction
p6804
aVjudgment
p6805
aVcatch
p6806
aVuse
p6807
aVtry/catch
p6808
aVunlik
p6809
aVjava
p6810
aVway
p6811
aVensur
p6812
aVthrown
p6813
aVcaught
p6814
aVuse
p6815
aVtry/catch
p6816
aVcall
p6817
aVfunction
p6818
aa(lp6819
Vdatabas
p6820
aVindex
p6821
aVwork
p6822
aVindex
p6823
aVimport
p6824
aVdataset
p6825
aVincreas
p6826
aVsize
p6827
aVsomeon
p6828
aVexplain
p6829
aVindex
p6830
aVwork
p6831
aVdatabas
p6832
aVagnost
p6833
aVlevel
p6834
aVinform
p6835
aVqueri
p6836
aVindex
p6837
aVfield
p6838
aVcheck
p6839
aVhttp//stackoverflowcom/questions//how-do-i-index-a-database-field
p6840
aa(lp6841
Vwindow
p6842
aVhelp
p6843
aVfile
p6844
aVoption
p6845
aVold
p6846
aVday
p6847
aVhelp
p6848
aVtrivial
p6849
aVpossibl
p6850
aVgener
p6851
aVfunki
p6852
aVrtf
p6853
aVfile
p6854
aVspecial
p6855
aVtag
p6856
aVcompil
p6857
aVwinhelp
p6858
aVfile
p6859
aVhlp
p6860
aVactual
p6861
aVwork
p6862
aVrealli
p6863
aVmicrosoft
p6864
aVdecid
p6865
aVwinhelp
p6866
aVhip
p6867
aVcool
p6868
aVanymor
p6869
aVswitch
p6870
aVchm
p6871
aVpoint
p6872
aVactual
p6873
aVaxe
p6874
aVwinhelp
p6875
aVvista
p6876
aVchm
p6877
aVmayb
p6878
aVnice
p6879
aVeveryon
p6880
aVtri
p6881
aVopen
p6882
aVchm
p6883
aVfile
p6884
aVnetwork
p6885
aVnice
p6886
aV"navig
p6887
aVwebpag
p6888
aVcanceled"
p6889
aVscreen
p6890
aVcaus
p6891
aVsecur
p6892
aVrestrict
p6893
aVway
p6894
aVchm
p6895
aVwork
p6896
aVnetwork
p6897
aVhardli
p6898
aVgood
p6899
aVchoic
p6900
aVuser
p6901
aVpress
p6902
aVhelp
p6903
aVbutton
p6904
aVwant
p6905
aVhelp
p6906
aVfunki
p6907
aVset
p6908
aVbottom
p6909
aVline
p6910
aVchm
p6911
aVabsolut
p6912
aVunus
p6913
aVwinhelp
p6914
aVoption
p6915
aVanymor
p6916
aVwonder
p6917
aValtern
p6918
aVespeci
p6919
aVintegr
p6920
aVapplic
p6921
aVie
p6922
aVwinhelp
p6923
aVchm
p6924
aVfunction
p6925
aVdirectli
p6926
aVjump
p6927
aVtopic
p6928
aVpdf
p6929
aVdisadvantag
p6930
aVrequir
p6931
aVadob
p6932
aVreader
p6933
aVlightweight
p6934
aVmani
p6935
aVpeopl
p6936
aVuse
p6937
aVlive
p6938
aVkind
p6939
aVstandard
p6940
aVnowaday
p6941
aVtell
p6942
aVreliabl
p6943
aVjump
p6944
aVpage/anchor
p6945
aVhtml
p6946
aVfile
p6947
aVseem
p6948
aVbest
p6949
aVchoic
p6950
aVdeal
p6951
aVdiffer
p6952
aVbrowser
p6953
aVcss
p6954
aVstuff
p6955
aVedit
p6956
aVlook
p6957
aVcreat
p6958
aVhelp
p6959
aVfile
p6960
aVfan
p6961
aV"no
p6962
aVsetup
p6963
aVextract
p6964
aVrun"
p6965
aVphilosophi
p6966
aVproblem
p6967
aVmani
p6968
aVtime
p6969
aVpast
p6970
aVmani
p6971
aVuser
p6972
aVnetwork
p6973
aVcaus
p6974
aVexactli
p6975
aVproblem
p6976
aVlook
p6977
aVrobust
p6978
aVfuture-proof
p6979
aVway
p6980
aVprovid
p6981
aVhelp
p6982
aVuser
p6983
aVcode
p6984
aVdiffer
p6985
aVhelp
p6986
aVsystem
p6987
aVapplic
p6988
aVchm
p6989
aVrealli
p6990
aVnice
p6991
aVformat
p6992
aVsecur
p6993
aVstuff
p6994
aVunus
p6995
aVhelp
p6996
aVsystem
p6997
aVsuppos
p6998
aVprovid
p6999
aVhelp
p7000
aVuser
p7001
aVgener
p7002
aVproblem
p7003
aa(lp7004
Vmalloc
p7005
aVdoubl
p7006
aVfree
p7007
aVerror
p7008
aVrealloc
p7009
aVive
p7010
aVtri
p7011
aVwrite
p7012
aVstring
p7013
aVreplac
p7014
aVfunction
p7015
aVc
p7016
aVwork
p7017
aValloc
p7018
aVuse
p7019
aVlittl
p7020
aVdiffer
p7021
aVreplac
p7022
aVstring
p7023
aVcharact
p7024
aVstart
p7025
aVstring
p7026
aVtrivial
p7027
aVsearch
p7028
aVreplac
p7029
aVstring
p7030
aVlength
p7031
aVreplac
p7032
aVstring
p7033
aVshorter
p7034
aVsearch
p7035
aVstring
p7036
aVsinc
p7037
aVspace
p7038
aValloc
p7039
aVtri
p7040
aVuse
p7041
aVerror
p7042
aVtell
p7043
aVdoubl
p7044
aVfree
p7045
aVdont
p7046
aVsinc
p7047
aVuse
p7048
aVperhap
p7049
aVlittl
p7050
aVcode
p7051
aVhelp
p7052
aVprogram
p7053
aVwork
p7054
aVtri
p7055
aVinstanc
p7056
aVreplac
p7057
aVstring
p7058
aVlonger
p7059
aViniti
p7060
aVstring
p7061
aVkind
p7062
aVwork
p7063
aVspit
p7064
aVerror
p7065
aVresult
p7066
aVhelp
p7067
aVcall
p7068
aVcode
p7069
aVlook
p7070
aa(lp7071
Vindex
p7072
aVdatabas
p7073
aVcolumn
p7074
aVhope
p7075
aVanswer
p7076
aVdatabas
p7077
aVserver
p7078
aVoutlin
p7079
aVindex
p7080
aVwork
p7081
aVcheck
p7082
aVhttp//stackoverflowcom/questions//how-does-database-indexing-work
p7083
aa(lp7084
Vuse
p7085
aVsvn
p7086
aVrevis
p7087
aVlabel
p7088
aVbuild
p7089
aVccnet
p7090
aVuse
p7091
aVccnet
p7092
aVsampl
p7093
aVproject
p7094
aVsvn
p7095
aVsourc
p7096
aVcontrol
p7097
aVccnet
p7098
aVconfigur
p7099
aVcreat
p7100
aVbuild
p7101
aVeveri
p7102
aVcheck
p7103
aVccnet
p7104
aVuse
p7105
aVmsbuild
p7106
aVbuild
p7107
aVsourc
p7108
aVcode
p7109
aVuse
p7110
aVlatest
p7111
aVrevis
p7112
aVnumber
p7113
aVgener
p7114
aVassemblyinfoc
p7115
aVcompil
p7116
aVretriev
p7117
aVlatest
p7118
aVrevis
p7119
aVsubvers
p7120
aVuse
p7121
aVvalu
p7122
aVccnet
p7123
aVedit
p7124
aVim
p7125
aVuse
p7126
aVnant
p7127
aVmsbuild
p7128
aa(lp7129
Veffici
p7130
aVgraph
p7131
aVdata
p7132
aVstructur
p7133
aVpython
p7134
aVneed
p7135
aVabl
p7136
aVmanipul
p7137
aVlarg
p7138
aV^
p7139
aVnode
p7140
aVgraph
p7141
aVpython
p7142
aVdata
p7143
aVcorrespond
p7144
aVnode/edg
p7145
aVminim
p7146
aVsmall
p7147
aVnumber
p7148
aVstring
p7149
aVeffici
p7150
aVterm
p7151
aVmemori
p7152
aVspeed
p7153
aVway
p7154
aVdict
p7155
aVdict
p7156
aVflexibl
p7157
aVsimpler
p7158
aVimplement
p7159
aVintuit
p7160
aVlist
p7161
aVlist
p7162
aVfaster
p7163
aVlist
p7164
aVoption
p7165
aVrequir
p7166
aVdata
p7167
aVsepar
p7168
aVstructur
p7169
aVdict
p7170
aVsometh
p7171
aVsort
p7172
aVgraphij"property"="value"
p7173
aVsuggest
p7174
aVye
p7175
aVbit
p7176
aVclearer
p7177
aVmean
p7178
aVeffici
p7179
aVparticular
p7180
aVcase
p7181
aVmean
p7182
aVterm
p7183
aVrandom
p7184
aVaccess
p7185
aVretriev
p7186
aVload
p7187
aVdata
p7188
aVmemori
p7189
aVisnt
p7190
aVhuge
p7191
aVproblem
p7192
aVtime
p7193
aVconsum
p7194
aVpart
p7195
aVvisit
p7196
aVnode
p7197
aVextract
p7198
aVinform
p7199
aVmeasur
p7200
aVmetric
p7201
aVim
p7202
aVinterest
p7203
aVhadnt
p7204
aVconsid
p7205
aVnode
p7206
aVclass
p7207
aVproperti
p7208
aVnode
p7209
aVseem
p7210
aVextra
p7211
aVlayer
p7212
aVoverhead
p7213
aVhope
p7214
aVsomeon
p7215
aVdirect
p7216
aVexperi
p7217
aVsimilar
p7218
aVcase
p7219
aVshare
p7220
aVgraph
p7221
aVcommon
p7222
aVabstract
p7223
aVcs
p7224
aa(lp7225
Vopen
p7226
aVsourc
p7227
aVrubi
p7228
aVproject
p7229
aVrecent
p7230
aVstart
p7231
aVstudi
p7232
aVrubi
p7233
aVlieu
p7234
aVjeff
p7235
aVadvic
p7236
aVweekend
p7237
aVstop
p7238
aVtheoriz
p7239
aVwrite
p7240
aVlot
p7241
aVsoftwar
p7242
aVlearn
p7243
aVmistak
p7244
aVinterest
p7245
aVhone
p7246
aVskill
p7247
aVhelp
p7248
aVopen
p7249
aVsourc
p7250
aVcommun
p7251
aVprocess
p7252
aVthought
p7253
aVid
p7254
aVask
p7255
aVanyon
p7256
aVsuggest
p7257
aVcool/interest
p7258
aVopen
p7259
aVsourc
p7260
aVproject
p7261
aVrubi
p7262
aVinvolv
p7263
aa(lp7264
Vsubdomain
p7265
aVuser
p7266
aVaccount
p7267
aVwebapp
p7268
aVlook
p7269
aVuser
p7270
aVcontrol
p7271
aVsubdomain
p7272
aVapp
p7273
aVtoy
p7274
aVmuch
p7275
aVbasecamp
p7276
aVrequir
p7277
aVend
p7278
aVcreat
p7279
aVdynam
p7280
aVavail
p7281
aVinstantli
p7282
aVrecommend
p7283
aVdeal
p7284
aVlogic
p7285
aVsite
p7286
aVrule
p7287
aVlookup
p7288
aVsubdomain
p7289
aa(lp7290
Vviewstat
p7291
aVinvalid
p7292
aVsafari
p7293
aVsite
p7294
aVmaintain
p7295
aVreli
p7296
aVheavili
p7297
aVuse
p7298
aVisnt
p7299
aVcode
p7300
aVhowev
p7301
aVcertain
p7302
aVpage
p7303
aVextra-blo
p7304
aVsafari
p7305
aVthrow
p7306
aVerror
p7307
aVsafari
p7308
aVfirefox
p7309
aVie
p7310
aVopera
p7311
aVload
p7312
aVsuccess
p7313
aVscenario
p7314
aa(lp7315
Vregex
p7316
aVpull
p7317
aVsub-str
p7318
aVtag
p7319
aVstring
p7320
aVfile
p7321
aVformat
p7322
aVdata
p7323
aVdata
p7324
aVdata
p7325
aVstart
p7326
aVdata
p7327
aVwant
p7328
aVend
p7329
aVdata
p7330
aVid
p7331
aVgrab
p7332
aVtag
p7333
aVuse
p7334
aVregex
p7335
aVanyon
p7336
aVshow
p7337
aa(lp7338
Vasynchron
p7339
aVmulti-direct
p7340
aVserver-cli
p7341
aVcommun
p7342
aVopen
p7343
aVsocket
p7344
aVclient-serv
p7345
aVapp
p7346
aVclient
p7347
aVwindow
p7348
aVmobil
p7349
aVdevic
p7350
aVc++
p7351
aVserver
p7352
aVfull
p7353
aVwindow
p7354
aVc#
p7355
aVorigin
p7356
aVneed
p7357
aVsend
p7358
aVmessag
p7359
aVclient
p7360
aVserver
p7361
aVserver
p7362
aVsend
p7363
aVacknowledg
p7364
aVreceiv
p7365
aVmessag
p7366
aVupdat
p7367
aVserver
p7368
aVactual
p7369
aVsend
p7370
aVmessag
p7371
aVclient
p7372
aVrequest
p7373
aVdata
p7374
aVcurrent
p7375
aVset
p7376
aVclient
p7377
aVreceiv
p7378
aVmode
p7379
aVsend
p7380
aVdata
p7381
aVserver
p7382
aVdoesnt
p7383
aVserver
p7384
aVsend
p7385
aVrequest
p7386
aVtime
p7387
aVwait
p7388
aVclient
p7389
aVdata
p7390
aVthought
p7391
aVcreat
p7392
aVthread
p7393
aVclient
p7394
aVsepar
p7395
aVopen
p7396
aVsocket
p7397
aVlisten
p7398
aVserver
p7399
aVrequestsjust
p7400
aVserver
p7401
aValreadi
p7402
aVrespect
p7403
aVclient
p7404
aVway
p7405
aVthread
p7406
aVuse
p7407
aVsocket
p7408
aVserver
p7409
aVsend
p7410
aVrequest
p7411
aVtime
p7412
aVuse
p7413
aVsometh
p7414
aVaffect
p7415
aVpass
p7416
aVreceiv
p7417
aVbuffer
p7418
aVevent
p7419
aVtell
p7420
aVdata
p7421
aVsent
p7422
aa(lp7423
Vadvantag
p7424
aVuse
p7425
aVsvn
p7426
aVcv
p7427
aVcompani
p7428
aVuse
p7429
aVcv
p7430
aVde-facto
p7431
aVstandard
p7432
aVsourc
p7433
aVcontrol
p7434
aVhowev
p7435
aVive
p7436
aVheard
p7437
aVlot
p7438
aVpeopl
p7439
aVsvn
p7440
aVsvn
p7441
aVnewer
p7442
aVim
p7443
aVunfamiliar
p7444
aVbenefit
p7445
aVim
p7446
aVlook
p7447
aVgood
p7448
aVsuccinct
p7449
aVcomparison
p7450
aVsystem
p7451
aVnote
p7452
aVadvantag
p7453
aVdisadvantag
p7454
aVjava/eclips
p7455
aVenviron
p7456
aa(lp7457
Vbig
p7458
aVmysql
p7459
aVdatabas
p7460
aVperform
p7461
aVstart
p7462
aVdegrad
p7463
aVpoint
p7464
aVmysql
p7465
aVdatabas
p7466
aVstart
p7467
aVperform
p7468
aVphysic
p7469
aVdatabas
p7470
aVsize
p7471
aVmatter
p7472
aVnumber
p7473
aVrecord
p7474
aVmatter
p7475
aVperform
p7476
aVdegrad
p7477
aVlinear
p7478
aVexponenti
p7479
aVbeliev
p7480
aVlarg
p7481
aVdatabas
p7482
aVroughli
p7483
aVm
p7484
aVrecord
p7485
aVgb
p7486
aVbase
p7487
aVnumber
p7488
aVincent
p7489
aVclean
p7490
aVdata
p7491
aVsafe
p7492
aVcontinu
p7493
aVscale
p7494
aVyear
p7495
aa(lp7496
Vlimit
p7497
aVsize
p7498
aVqueue<t>
p7499
aVnet
p7500
aVqueue<t>
p7501
aVobject
p7502
aVinitialis
p7503
aVcapac
p7504
aVobvious
p7505
aVcapac
p7506
aVexpand
p7507
aVitem
p7508
aValreadi
p7509
aVobject
p7510
aVautomat
p7511
aVdequeu
p7512
aVitem
p7513
aVlimit
p7514
aVreach
p7515
aVbest
p7516
aVsolut
p7517
aVcreat
p7518
aVinherit
p7519
aVclass
p7520
aa(lp7521
Vnant
p7522
aVsupport
p7523
aVsuitabl
p7524
aVnet
p7525
aV/v
p7526
aVuse
p7527
aVmsbuild
p7528
aVbuild
p7529
aVstuff
p7530
aVwant
p7531
aVuse
p7532
aVcruisecontrolnet
p7533
aVbuild
p7534
aVserver
p7535
aVccnet
p7536
aVrefer
p7537
aVnant
p7538
aVlot
p7539
aVlook
p7540
aVccnet
p7541
aVstuff
p7542
aVnant
p7543
aVproject
p7544
aVconfigur
p7545
aVmsbuild
p7546
aVnant
p7547
aVseem
p7548
aVbit
p7549
aVunsupport
p7550
aVbeta
p7551
aVreleas
p7552
aVyear
p7553
aVold
p7554
aVshort
p7555
aVactual
p7556
aVquit
p7557
aVhappi
p7558
aVmsbuild
p7559
aVespeci
p7560
aVsinc
p7561
aV"official"
p7562
aVcompil
p7563
aVfront
p7564
aVend
p7565
aVbit
p7566
aVuncomfort
p7567
aVnant
p7568
aVwant
p7569
aVjudg
p7570
aVprematur
p7571
aVreason
p7572
aVuse
p7573
aVnant
p7574
aVmsbuild
p7575
aVespeci
p7576
aVccnet
p7577
aVseem
p7578
aVoverlap
p7579
aVbit
p7580
aVnant
p7581
aVterm
p7582
aVfeatur
p7583
aVad
p7584
aVautom
p7585
aVbuild
p7586
aVrelat
p7587
aVstuff
p7588
aa(lp7589
Vcheck
p7590
aVfile
p7591
aVlock
p7592
aVway
p7593
aVcheck
p7594
aVfile
p7595
aVlock
p7596
aVuse
p7597
aVtry/catch
p7598
aVblock
p7599
aVright
p7600
aVway
p7601
aVopen
p7602
aVfile
p7603
aVcatch
p7604
aVsystemioioexcept
p7605
aa(lp7606
Vuse
p7607
aVncurs
p7608
aVrubi
p7609
aVid
p7610
aVcreat
p7611
aVprogress
p7612
aVbar
p7613
aVindic
p7614
aVstatu
p7615
aVbatch
p7616
aVjob
p7617
aVrubi
p7618
aVive
p7619
aVread
p7620
aVtutori
p7621
aV/
p7622
aVlibrari
p7623
aVuse
p7624
aVncurs
p7625
aVnone
p7626
aVparticularli
p7627
aVhelp
p7628
aVexplain
p7629
aVcreat
p7630
aV"animated"
p7631
aVprogress
p7632
aVbar
p7633
aVtermin
p7634
aVuse
p7635
aVcurs
p7636
aVrubi
p7637
aVim
p7638
aValreadi
p7639
aVawar
p7640
aVuse
p7641
aVsepar
p7642
aVthread
p7643
aVmonitor
p7644
aVprogress
p7645
aVjob
p7646
aVim
p7647
aVsure
p7648
aVproceed
p7649
aVdraw
p7650
aVprogress
p7651
aVbar
p7652
aVupdat
p7653
aVprogressbar
p7654
aVclass
p7655
aVstraight-forward
p7656
aVperfectli
p7657
aVsolv
p7658
aVproblem
p7659
aa(lp7660
Vrockbox
p7661
aVaudio
p7662
aVformat
p7663
aVspecifi
p7664
aVcallback
p7665
aa(lp7666
Vfollowup
p7667
aVaccur
p7668
aV"distance"
p7669
aVcolor
p7670
aVorigin
p7671
aVquestion
p7672
aVlook
p7673
aVfunction
p7674
aVattempt
p7675
aVquantifi
p7676
aV"distant"
p7677
aVdistinct
p7678
aVcolor
p7679
aVquestion
p7680
aVrealli
p7681
aVpart
p7682
aVcolor
p7683
aVspace
p7684
aVbest
p7685
aVrepres
p7686
aVhuman
p7687
aVvision
p7688
aVdistanc
p7689
aVmetric
p7690
aVspace
p7691
aVbest
p7692
aVrepres
p7693
aVhuman
p7694
aVvision
p7695
aVeuclidean
p7696
aa(lp7697
Vuse
p7698
aVmstest
p7699
aVcruisecontrolnet
p7700
aVuse
p7701
aVcruisecontrol
p7702
aVquit
p7703
aVnunit
p7704
aVnant
p7705
aVrecent
p7706
aVproject
p7707
aVdecid
p7708
aVuse
p7709
aVtest
p7710
aVframework
p7711
aVvisual
p7712
aVstudio
p7713
aVadequ
p7714
aVim
p7715
aVattempt
p7716
aVsolut
p7717
aVcruisecontrol
p7718
aVive
p7719
aVfinal
p7720
aVbuild
p7721
aVwork;
p7722
aVhowev
p7723
aVunabl
p7724
aVtest
p7725
aVshow
p7726
aVcruisecontrol
p7727
aVinterfac
p7728
aVdespit
p7729
aVad
p7730
aVcustom
p7731
aVbuild
p7732
aVtask
p7733
aVcompon
p7734
aVdesign
p7735
aVanyon
p7736
aVdefinit
p7737
aVlink
p7738
aVinstruct
p7739
aVset
p7740
aa(lp7741
Vfollowup
p7742
aV"sorting"
p7743
aVcolor
p7744
aVdistinct
p7745
aVorigin
p7746
aVquestion
p7747
aVn
p7748
aVmaxim
p7749
aVdistant
p7750
aVcolor
p7751
aVassoci
p7752
aVdistanc
p7753
aVmetric
p7754
aVway
p7755
aVsort
p7756
aVcolor
p7757
aVorder
p7758
aVm
p7759
aVreason
p7760
aVmaxim
p7761
aVdistinct
p7762
aVset
p7763
aVword
p7764
aVbunch
p7765
aVdistinct
p7766
aVcolor
p7767
aVorder
p7768
aVuse
p7769
aVmani
p7770
aVcolor
p7771
aVneed
p7772
aVstart
p7773
aVbegin
p7774
aVreason
p7775
aVassur
p7776
aVdistinct
p7777
aVnearbi
p7778
aVcolor
p7779
aVdistinct
p7780
aVeg
p7781
aVbluish
p7782
aVred
p7783
aVisnt
p7784
aVnext
p7785
aVreddish
p7786
aVblue
p7787
aVrandom
p7788
aVok
p7789
aVcertainli
p7790
aVoptim
p7791
aVclarif
p7792
aVlarg
p7793
aVvisual
p7794
aVdistinct
p7795
aVset
p7796
aVcolor
p7797
aVwant
p7798
aVsort
p7799
aVuse
p7800
aVrel
p7801
aVvisual
p7802
aVdistinct
p7803
aVsubset
p7804
aVcolor
p7805
aVequival
p7806
aVroughli
p7807
aVwant
p7808
aVsort
p7809
aVlist
p7810
aVcloser
p7811
aVindividu
p7812
aVcolor
p7813
aVvisual
p7814
aVfarther
p7815
aVlist
p7816
aa(lp7817
Vfile
p7818
aVcopi
p7819
aValtern
p7820
aVwindow
p7821
aVdefault
p7822
aVneed
p7823
aVcopi
p7824
aVhundr
p7825
aVgig
p7826
aVrandom
p7827
aVfile
p7828
aVcomput
p7829
aVpretti
p7830
aVleeri
p7831
aVuse
p7832
aVvanilla
p7833
aVfile
p7834
aVcopi
p7835
aVbuilt
p7836
aVwindow
p7837
aVdont
p7838
aVwant
p7839
aVhang
p7840
aV"are
p7841
aVsure"
p7842
aV"are
p7843
aVrealli
p7844
aVsure"
p7845
aVzip
p7846
aVfiles"
p7847
aV"sure
p7848
aVread-onli
p7849
aVfile
p7850
aVtoo!"
p7851
aVloop
p7852
aVstep
p7853
aVdont
p7854
aVwant
p7855
aVwork
p7856
aVhour
p7857
aVstop
p7858
aVunexpectedli
p7859
aV"someon
p7860
aVopen
p7861
aVfile
p7862
aVwont
p7863
aVcopi
p7864
aVit!"
p7865
aVcancel
p7866
aVwhole
p7867
aVcopi
p7868
aVquit
p7869
aVindic
p7870
aVwork
p7871
aVremain
p7872
aVfile
p7873
aVmanag
p7874
aVprogram
p7875
aVexperi
p7876
aVrecommend
p7877
aVquestion
p7878
aVrelat
p7879
aVquestion
p7880
aVuse
p7881
aVold
p7882
aVpata
p7883
aVhard
p7884
aVdisk
p7885
aVdrive
p7886
aVnewer
p7887
aVsata-onli
p7888
aVcomput
p7889
aa(lp7890
Vcurrent
p7891
aVlog
p7892
aVos
p7893
aVuser
p7894
aVadob
p7895
aVair
p7896
aVneed
p7897
aVname
p7898
aVcurrent
p7899
aVlog
p7900
aVuser
p7901
aVair/flex
p7902
aVapplic
p7903
aVapplic
p7904
aVdeploy
p7905
aVwindow
p7906
aVmachin
p7907
aVthink
p7908
aVattain
p7909
aVregex
p7910
aVuser
p7911
aVdirectori
p7912
aVopen
p7913
aVway
p7914
aa(lp7915
Vunit
p7916
aVtest
p7917
aVsaw
p7918
aVmani
p7919
aVquestion
p7920
aVask
p7921
aVunit
p7922
aVtest
p7923
aVspecif
p7924
aVlanguag
p7925
aVquestion
p7926
aVask
p7927
aVuse
p7928
aVuse
p7929
aVcommon
p7930
aVpitfal
p7931
aVmisconcept
p7932
aa(lp7933
Vsubson
p7934
aVvs
p7935
aVnhibern
p7936
aVconcensu
p7937
aVuse
p7938
aVtool
p7939
aVadvers
p7940
aVsubson
p7941
aVuse
p7942
aVterm
p7943
aVthing
p7944
aVquickli
p7945
aVlarg
p7946
aVproject
p7947
aVtend
p7948
aVscale
p7949
aVtie
p7950
aVdomain
p7951
aVmodel
p7952
aVdatabas
p7953
aVmodel
p7954
aVnhibern
p7955
aVlightweight
p7956
aVpoco
p7957
aVunrel
p7958
aVdatabas
p7959
aVmodel
p7960
aVsetup
p7961
aVtime
p7962
aVmuch
p7963
aVlonger
p7964
aa(lp7965
Vwindow
p7966
aVserver
p7967
aV"server
p7968
aVcore"
p7969
aVappropri
p7970
aVsql
p7971
aVserver
p7972
aVinstanc
p7973
aVim
p7974
aVset
p7975
aVdedic
p7976
aVsql
p7977
aVserver
p7978
aVbox
p7979
aVwindow
p7980
aVserver
p7981
aVweek
p7982
aVpare
p7983
aVbarebon
p7984
aVpossibl
p7985
aVfulli
p7986
aVfunction
p7987
aVend
p7988
aV"server
p7989
aVcore"
p7990
aVoption
p7991
aVsound
p7992
aVappeal
p7993
aVim
p7994
aVclear
p7995
aVsql
p7996
aVserver
p7997
aVsku
p7998
aVsever
p7999
aVservic
p8000
aVaddress
p8001
aVmicrosoft
p8002
aVwebsit
p8003
aVdont
p8004
aVindic
p8005
aVsql
p8006
aVserver
p8007
aVanyon
p8008
aVdefinit
p8009
aa(lp8010
Vaspnet
p8011
aVcustom
p8012
aVclient-sid
p8013
aVvalid
p8014
aVcustom
p8015
aVvalid
p8016
aVfunction
p8017
aVjavascript
p8018
aVuser
p8019
aVcontrol
p8020
aVnet
p8021
aVweb
p8022
aVsite
p8023
aVcheck
p8024
aVfee
p8025
aVpaid
p8026
aVexcess
p8027
aVfee
p8028
aVamount
p8029
aVdue
p8030
aVive
p8031
aVplace
p8032
aVvalid
p8033
aVcode
p8034
aVascx
p8035
aVfile
p8036
aVtri
p8037
aVuse
p8038
aVpageclientscriptregisterclientscriptblock
p8039
aVcase
p8040
aVvalid
p8041
aVfire
p8042
aVcannot
p8043
aVjavascript
p8044
aVfunction
p8045
aVoutput
p8046
aVfirefox
p8047
aVerror
p8048
aVconsol
p8049
aV"feeamountcheck
p8050
aVdefined"
p8051
aVfunction
p8052
aVdirectli
p8053
aVfirefox->view
p8054
aVsourc
p8055
aVidea
p8056
aVfunction
p8057
aVisnt
p8058
aVfound
p8059
aVremedi
p8060
aVfunction
p8061
aVmaster
p8062
aVpage
p8063
aVconsum
p8064
aVpage
p8065
aa(lp8066
Vxampp/apach
p8067
aVserv
p8068
aVfile
p8069
aVoutsid
p8070
aVhtdoc
p8071
aVpossibl
p8072
aVconfigur
p8073
aVxampp
p8074
aVserv
p8075
aVfile
p8076
aVoutsid
p8077
aVdirectori
p8078
aVinstanc
p8079
aVfile
p8080
aVxampp
p8081
aVfile
p8082
aVnormal
p8083
aVserv
p8084
aVconfigur
p8085
aVdefault
p8086
aVway
p8087
aVapach
p8088
aVrecogn
p8089
aVserv
p8090
aVfile
p8091
aVmove
p8092
aVprefer
p8093
aVid
p8094
aVapach
p8095
aVserv
p8096
aVup/hav
p8097
aVaccess
p8098
aVentir
p8099
aVcontent
p8100
aVproject
p8101
aVdirectori
p8102
aVdont
p8103
aVwant
p8104
aVmove
p8105
aVproject
p8106
aVdirectori
p8107
aVedit
p8108
aVedit
p8109
aVapach
p8110
aVquestion
p8111
aVtitl
p8112
aVq/a
p8113
aV"searchable"
p8114
aa(lp8115
Vbandwith
p8116
aVthrottl
p8117
aVii
p8118
aVip
p8119
aVaddress
p8120
aVwrite
p8121
aVapplic
p8122
aVdownload
p8123
aVlarg
p8124
aVfile
p8125
aVbackground
p8126
aVclient
p8127
aVlog
p8128
aVlocal
p8129
aVvpn
p8130
aVlog
p8131
aVlocal
p8132
aVwant
p8133
aVthrottl
p8134
aVdownload
p8135
aVhowev
p8136
aVlimit
p8137
aVdownload
p8138
aVkbp
p8139
aVuser
p8140
aVconnect
p8141
aVvpn
p8142
aVdifferenti
p8143
aVuser
p8144
aVip
p8145
aVaddress
p8146
aVrang
p8147
aVsinc
p8148
aVair
p8149
aVapplic
p8150
aVfigur
p8151
aVthrottl
p8152
aVserver-sid
p8153
aVsinc
p8154
aVserver
p8155
aVii
p8156
aVweb
p8157
aVservic
p8158
aVaspnet
p8159
aV/
p8160
aVc#
p8161
aVthrottl
p8162
aVii
p8163
aVseem
p8164
aVwork
p8165
aVfine
p8166
aVseem
p8167
aVentir
p8168
aVweb
p8169
aVsite
p8170
aVip
p8171
aVrig
p8172
aVnet
p8173
aa(lp8174
Vauthent
p8175
aVuser
p8176
aVname
p8177
aVapach
p8178
aVuse
p8179
aVplain
p8180
aVhttp
p8181
aVauthent
p8182
aVphp
p8183
aVsecur
p8184
aVway
p8185
aVim
p8186
aVuse
p8187
aVsimpl
p8188
aVauthent
p8189
aVapach
p8190
aVone-off
p8191
aVintern
p8192
aVuse
p8193
aVnon-internet
p8194
aVconnect
p8195
aVlan
p8196
aVphp
p8197
aVweb
p8198
aVapp
p8199
aVhttp
p8200
aVauthent
p8201
aVuser
p8202
aVname
p8203
aVphp
p8204
aa(lp8205
Vbest
p8206
aVway
p8207
aVhandl
p8208
aVmultipl
p8209
aVpermiss
p8210
aVtype
p8211
aVencount
p8212
aVscenario
p8213
aVneed
p8214
aVoffer
p8215
aVmani
p8216
aVdiffer
p8217
aVtype
p8218
aVpermiss
p8219
aVprimarili
p8220
aVuse
p8221
aVaspnet
p8222
aV/
p8223
aVvbnet
p8224
aVsql
p8225
aVserver
p8226
aVscenario
p8227
aVwant
p8228
aVoffer
p8229
aVdynam
p8230
aVpermiss
p8231
aVsystem
p8232
aVwork
p8233
aVdiffer
p8234
aVparamet
p8235
aVwant
p8236
aVdepart
p8237
aVspecif
p8238
aVperson
p8239
aVaccess
p8240
aVapplic
p8241
aVpretend
p8242
aVnumber
p8243
aVapplic
p8244
aVgrow
p8245
aVpast
p8246
aVchosen
p8247
aVway
p8248
aVuse
p8249
aVsingl
p8250
aVpermiss
p8251
aVtabl
p8252
aVspecial
p8253
aVcolumn
p8254
aVuse
p8255
aVdetermin
p8256
aVappli
p8257
aVparamet
p8258
aVspecial
p8259
aVcolumn
p8260
aVexampl
p8261
aVtypeid
p8262
aVtypeauxid
p8263
aVsql
p8264
aVlook
p8265
aVsometh
p8266
aVuse
p8267
aVmap
p8268
aVtabl
p8269
aVtype
p8270
aVpermiss
p8271
aVjoin
p8272
aVtogeth
p8273
aVthought
p8274
aVhope
p8275
aVexampl
p8276
aVsens
p8277
aVcobbl
p8278
aVtogeth
p8279
aVexampl
p8280
aVrequir
p8281
aVwork
p8282
aVfeel
p8283
aVbest
p8284
aVanswer
p8285
aVway
p8286
aVhandl
p8287
aa(lp8288
Vuse
p8289
aVobject
p8290
aVproperti
p8291
aVdefault
p8292
aVmethod
p8293
aVproperti
p8294
aVim
p8295
aVtri
p8296
aVproduc
p8297
aVunexpect
p8298
aVt_variabl
p8299
aVerror
p8300
aVdont
p8301
aVwant
p8302
aVput
p8303
aVmagic
p8304
aVnumber
p8305
aVweight
p8306
aVsinc
p8307
aVobject
p8308
aVuse
p8309
aV"defaultweight"
p8310
aVparamet
p8311
aVnew
p8312
aVshipment
p8313
aVdont
p8314
aVspecifi
p8315
aVweight
p8316
aVcant
p8317
aVput
p8318
aVdefaultweight
p8319
aVshipment
p8320
aVchang
p8321
aVshipment
p8322
aVgroup
p8323
aVshipment
p8324
aVgroup
p8325
aVway
p8326
aa(lp8327
Vmodifi
p8328
aVaddress
p8329
aVbar
p8330
aVurl
p8331
aVajax
p8332
aVapp
p8333
aVmatch
p8334
aVcurrent
p8335
aVstate
p8336
aVim
p8337
aVwrite
p8338
aVajax
p8339
aVapp
p8340
aVuser
p8341
aVmove
p8342
aVapp
p8343
aVid
p8344
aVurl
p8345
aVaddress
p8346
aVbar
p8347
aVupdat
p8348
aVdespit
p8349
aVlack
p8350
aVpage
p8351
aVreload
p8352
aVbasic
p8353
aVid
p8354
aVabl
p8355
aVbookmark
p8356
aVpoint
p8357
aVtherebi
p8358
aVreturn
p8359
aVcurrent
p8360
aVstate
p8361
aVpeopl
p8362
aVhandl
p8363
aVmaintain
p8364
aVrest
p8365
aVajax
p8366
aVapp
p8367
aa(lp8368
Vexpress
p8369
aVbinari
p8370
aVliter
p8371
aVpython
p8372
aVexpress
p8373
aVinteg
p8374
aVbinari
p8375
aVnumber
p8376
aVpython
p8377
aVliter
p8378
aVeasili
p8379
aVabl
p8380
aVanswer
p8381
aVhex
p8382
aVoctal
p8383
aVuse
p8384
aVliter
p8385
aVexpress
p8386
aVbinari
p8387
aVpython
p8388
aVsummari
p8389
aVanswer
p8390
aVpython
p8391
aVexpress
p8392
aVbinari
p8393
aVuse
p8394
aVliter
p8395
aVpython
p8396
aVway
p8397
aVexpress
p8398
aVbinari
p8399
aVliter
p8400
aVpython
p8401
aVbeta
p8402
aVpython
p8403
aVbeta
p8404
aVsecond
p8405
aVcharact
p8406
aVletter
p8407
aVo
p8408
aVrepres
p8409
aVoctal
p8410
aVpython
p8411
aVbeta
p8412
aVlonger
p8413
aVolder
p8414
aVsyntax
p8415
aVoctal
p8416
aa(lp8417
Vprefer
p8418
aVversion
p8419
aVvim
p8420
aVemac
p8421
aVmac
p8422
aVos
p8423
aVx
p8424
aVuse
p8425
aVgraphic
p8426
aVversion
p8427
aVvim
p8428
aVemac
p8429
aVconsol
p8430
aVversion
p8431
aVversion
p8432
aVrecommend
p8433
aVvim
p8434
aVmac
p8435
aVos
p8436
aVx
p8437
aVvim
p8438
aVmacvim
p8439
aVvim-cocoa
p8440
aVemac
p8441
aVcarbonemac
p8442
aVxemac
p8443
aVaquamac
p8444
aVreadi
p8445
aVprime-tim
p8446
aVtough
p8447
aVcall
p8448
aVtrade-off
p8449
aVmaintain
p8450
aVdiscuss
p8451
aVvim
p8452
aVvs
p8453
aVemac
p8454
aVdont
p8455
aVmind
p8456
aVcomparison
p8457
aVeditor
p8458
aa(lp8459
Vintegr
p8460
aVvisual
p8461
aVstudio
p8462
aVtest
p8463
aVproject
p8464
aVcruis
p8465
aVcontrol
p8466
aVim
p8467
aVlook
p8468
aVuse
p8469
aVvisual
p8470
aVstudio
p8471
aVbuilt
p8472
aVunit
p8473
aVtest
p8474
aVproject
p8475
aVnunit
p8476
aVwonder
p8477
aVanyon
p8478
aVexperi
p8479
aVtri
p8480
aVintegr
p8481
aVtype
p8482
aVunit
p8483
aVtest
p8484
aVproject
p8485
aVcruis
p8486
aVcontrolnet
p8487
aa(lp8488
Vweb
p8489
aVsite
p8490
aVicon
p8491
aViphon
p8492
aVset
p8493
aVicon
p8494
aViphon
p8495
aVweb
p8496
aVsite
p8497
aVcreat
p8498
aa(lp8499
Vdiffer
p8500
aVdistribut
p8501
aVversion
p8502
aVcontrol
p8503
aVsystem
p8504
aVwork
p8505
aVtogeth
p8506
aVoffic
p8507
aVcentral
p8508
aVsourc
p8509
aVsafe
p8510
aVinstal
p8511
aVuse
p8512
aVsourc
p8513
aVcontrol
p8514
aVcant
p8515
aVchang
p8516
aVoffic
p8517
aVuse
p8518
aVserver
p8519
aVlaptop
p8520
aVdiffer
p8521
aVlocal
p8522
aVsourc
p8523
aVcontrol
p8524
aVrepositori
p8525
aVsync
p8526
aVcentral
p8527
aVserver
p8528
aVavail
p8529
aVcentral
p8530
aVprovid
p8531
aVreason
p8532
aVrequest
p8533
aVmaintain
p8534
aVlocal
p8535
aVstabl
p8536
aVbranch/build
p8537
aVclient
p8538
aVpresent
p8539
aVcontinu
p8540
aVjump
p8541
aVflame
p8542
aVhoop
p8543
aVconsult
p8544
aVclient
p8545
aVrequest
p8546
aVuse
p8547
aVsourc
p8548
aVcontrol
p8549
aVprovid
p8550
aVflexibl
p8551
aVlife
p8552
aVeasier
p8553
aVexist
p8554
aVdistribut
p8555
aVsourc
p8556
aVcontrol
p8557
aVclient
p8558
aVhandl
p8559
aa(lp8560
Vhide
p8561
aVinherit
p8562
aVmember
p8563
aVim
p8564
aVlook
p8565
aVway
p8566
aVeffect
p8567
aVhide
p8568
aVinherit
p8569
aVmember
p8570
aVlibrari
p8571
aVclass
p8572
aVinherit
p8573
aVcommon
p8574
aVbase
p8575
aVclass
p8576
aVrecent
p8577
aVdescend
p8578
aVclass
p8579
aVinherit
p8580
aVdepend
p8581
aVproperti
p8582
aVbecom
p8583
aVvestigi
p8584
aVlittl
p8585
aVconfus
p8586
aVuse
p8587
aVintellisens
p8588
aVuse
p8589
aVclass
p8590
aVvisual
p8591
aVdesign
p8592
aVclass
p8593
aVcontrol
p8594
aVcompil
p8595
aVwpf
p8596
aVsilverlight
p8597
aVim
p8598
aVpretti
p8599
aVcertain
p8600
aVcant
p8601
aVuse
p8602
aVsilverlight
p8603
aVmuch
p8604
aVfunction
p8605
aVissu
p8606
aVusabl
p8607
aVissu
p8608
aVupdat
p8609
aVproperti
p8610
aVrealli
p8611
aVhide
p8612
aVancestor
p8613
aVspecif
p8614
aVtool
p8615
aVim
p8616
aVdesign
p8617
aVcant
p8618
aVmember
p8619
aVhide
p8620
aVoper
p8621
aVridicul
p8622
aa(lp8623
Vreduc
p8624
aVduplic
p8625
aVerror
p8626
aVhandl
p8627
aVcode
p8628
aVc#
p8629
aVive
p8630
aVcomplet
p8631
aVhappi
p8632
aVway
p8633
aVhandl
p8634
aVwork
p8635
aVlot
p8636
aVtry/catch
p8637
aVbring
p8638
aVtabl
p8639
aVstack
p8640
aVunwind
p8641
aVetc
p8642
aVseem
p8643
aVbreak
p8644
aVlot
p8645
aVoo
p8646
aVmodel
p8647
aVprocess
p8648
aVproblem
p8649
aVclass
p8650
aVwrap
p8651
aVinclud
p8652
aVnetwork
p8653
aVfile
p8654
aVio
p8655
aVoper
p8656
aVeg
p8657
aVread
p8658
aVwrite
p8659
aVfile
p8660
aVparticular
p8661
aVunc
p8662
aVpath
p8663
aVsomewher
p8664
aVvariou
p8665
aVreason
p8666
aVdont
p8667
aVwant
p8668
aVio
p8669
aVoper
p8670
aVfail
p8671
aVdetect
p8672
aVfail
p8673
aVretri
p8674
aVretri
p8675
aVreach
p8676
aVtimeout
p8677
aValreadi
p8678
aVconveni
p8679
aVretrytim
p8680
aVclass
p8681
aVinstanti
p8682
aVuse
p8683
aVsleep
p8684
aVcurrent
p8685
aVthread
p8686
aVretri
p8687
aVdetermin
p8688
aVtimeout
p8689
aVperiod
p8690
aVelaps
p8691
aVetc
p8692
aVproblem
p8693
aVbunch
p8694
aVio
p8695
aVoper
p8696
aVsever
p8697
aVmethod
p8698
aVclass
p8699
aVneed
p8700
aVwrap
p8701
aVtry-catch
p8702
aV/
p8703
aVretri
p8704
aVlogic
p8705
aVexampl
p8706
aVcode
p8707
aVsnippet
p8708
aVavoid
p8709
aVduplic
p8710
aVcode
p8711
aVeveri
p8712
aVfile
p8713
aVio
p8714
aVoper
p8715
aVclass
p8716
aVsolut
p8717
aVuse
p8718
aVanonym
p8719
aVdeleg
p8720
aVblock
p8721
aVsingl
p8722
aVmethod
p8723
aVclass
p8724
aVexecut
p8725
aVdeleg
p8726
aVblock
p8727
aVpass
p8728
aVthing
p8729
aVmethod
p8730
aVleav
p8731
aVlot
p8732
aVdesir
p8733
aVid
p8734
aVhear
p8735
aVpeopl
p8736
aVsolv
p8737
aVsort
p8738
aVproblem
p8739
aa(lp8740
Vonlin
p8741
aVpeer
p8742
aVcode
p8743
aVreview
p8744
aVpeopl
p8745
aVwork
p8746
aVsmall
p8747
aVteam
p8748
aVteam
p8749
aVbest
p8750
aVneed
p8751
aVlearn
p8752
aVsomeon
p8753
aVonlin
p8754
aVresources/method
p8755
aVsort
p8756
aVpeer
p8757
aVcode
p8758
aVreview
p8759
aVuse
p8760
aVpretti
p8761
aVactiv
p8762
aVonlin
p8763
aVart
p8764
aVcommun
p8765
aVspecif
p8766
aVdraw
p8767
aVanim
p8768
aVsort
p8769
aVsite
p8770
aVpost
p8771
aVpictur
p8772
aVcritiqu
p8773
aVcomment
p8774
aVive
p8775
aVanyth
p8776
aVprogramm
p8777
aVim
p8778
aVthink
p8779
aVsomewher
p8780
aVpost
p8781
aVobject
p8782
aVarchitectur
p8783
aVplan
p8784
aVdb
p8785
aVdesign
p8786
aVplan
p8787
aVstraight
p8788
aVcode
p8789
aVother
p8790
aVlook
p8791
aVlearn
p8792
aVcritiqu
p8793
aVcomment
p8794
aVanyon
p8795
aVanyth
p8796
aVanywher
p8797
aVprefer
p8798
aVfocus
p8799
aVphp
p8800
aVanyth
p8801
aVnon-fre
p8802
aVsite
p8803
aVok
p8804
aVnote
p8805
aVye
p8806
aVawar
p8807
aVsecur
p8808
aVimplic
p8809
aVsecur
p8810
aVobscur
p8811
aVworst
p8812
aVsecur
p8813
aVpost
p8814
aVcode
p8815
aVactual
p8816
aVhelp
p8817
aVflush
p8818
aVpotenti
p8819
aVsecur
p8820
aVissu
p8821
aa(lp8822
Vlongtim
p8823
aVwindow
p8824
aVuser
p8825
aVstart
p8826
aVuse
p8827
aVlinux
p8828
aVweve
p8829
aVfinal
p8830
aVmove
p8831
aVwebsit
p8832
aVdecent
p8833
aVhost
p8834
aVtime
p8835
aVshell
p8836
aVaccess
p8837
aVlittl
p8838
aVuse
p8839
aVlinux
p8840
aVnavig
p8841
aVfile
p8842
aVsystem
p8843
aVread
p8844
aVfile
p8845
aVvim
p8846
aVim
p8847
aVawar
p8848
aVman
p8849
aVcommand
p8850
aVabl
p8851
aVwork
p8852
aVsolut
p8853
aVproblem
p8854
aVshow
p8855
aVeventu
p8856
aVim
p8857
aVunawar
p8858
aVlot
p8859
aVedit
p8860
aVcurrent
p8861
aVuse
p8862
aVhost
p8863
aVhold
p8864
aVlive
p8865
aVsite
p8866
aVim
p8867
aVsure
p8868
aVuse
p8869
aVeffect
p8870
aVim
p8871
aVsure
p8872
aVstart
p8873
aVweb
p8874
aVmind
p8875
aVessenti
p8876
aVcommand
p8877
aVeveri
p8878
aVlinux
p8879
aVuser
p8880
aVuse
p8881
aVcommand
p8882
aVlook
p8883
aa(lp8884
Vlinux
p8885
aVshell
p8886
aVequival
p8887
aVii
p8888
aVlamp
p8889
aVconsid
p8890
aVmove
p8891
aVnet
p8892
aVii
p8893
aVplatform
p8894
aVconcern
p8895
aVloss
p8896
aVproduct
p8897
aVdue
p8898
aVlack
p8899
aVshell
p8900
aVanyon
p8901
aVels
p8902
aVexperi
p8903
aVpossibl
p8904
aVlinux
p8905
aVshell
p8906
aVequival
p8907
aVwindow
p8908
aa(lp8909
Vcorrect
p8910
aVpixel
p8911
aVdimens
p8912
aVapple-touch-icon
p8913
aVim
p8914
aVsure
p8915
aVcorrect
p8916
aVsize
p8917
aVmani
p8918
aVsite
p8919
aVseem
p8920
aVrepeat
p8921
aVapple-touch-icon
p8922
aVx
p8923
aVpixel
p8924
aVcite
p8925
aVbroken
p8926
aVlink
p8927
aVsourc
p8928
aVhanselman
p8929
aVplaygroundbluess
p8930
aVcomment
p8931
aVsuggest
p8932
aVdiffer
p8933
aVsize
p8934
aVinclud
p8935
aVx
p8936
aVx
p8937
aVappl
p8938
aVapplecom
p8939
aVicon
p8940
aVx!
p8941
aVrelat
p8942
aVquestion
p8943
aVweb
p8944
aVsite
p8945
aVicon
p8946
aViphon
p8947
aa(lp8948
Vbest
p8949
aVway
p8950
aVcopi
p8951
aVdataba
p8952
aVcreat
p8953
aVnew
p8954
aVempti
p8955
aVdatabas
p8956
aVbackup
p8957
aVrestor
p8958
aVexist
p8959
aVdatabas
p8960
aVrealli
p8961
aVbest
p8962
aVway
p8963
aVseem
p8964
aVerror
p8965
aVprone
p8966
aVcomplic
p8967
aa(lp8968
Vmechan
p8969
aVtrack
p8970
aVdb
p8971
aVschema
p8972
aVchang
p8973
aVbest
p8974
aVmethod
p8975
aVtrack
p8976
aVand/or
p8977
aVautom
p8978
aVdb
p8979
aVschema
p8980
aVchang
p8981
aVteam
p8982
aVuse
p8983
aVsubvers
p8984
aVversion
p8985
aVcontrol
p8986
aVweve
p8987
aVabl
p8988
aVautom
p8989
aVtask
p8990
aVway
p8991
aVpush
p8992
aVbuild
p8993
aVstage
p8994
aVserver
p8995
aVdeploy
p8996
aVtest
p8997
aVcode
p8998
aVproduct
p8999
aVserver
p9000
aVdatabas
p9001
aVupdat
p9002
aVmanual
p9003
aVcreat
p9004
aVsolut
p9005
aVwork
p9006
aVeffici
p9007
aVserver
p9008
aVdiffer
p9009
aVenviron
p9010
aVcontinu
p9011
aVuse
p9012
aVsubvers
p9013
aVbackend
p9014
aVcode
p9015
aVdb
p9016
aVupdat
p9017
aVpush
p9018
aVvariou
p9019
aVserver
p9020
aVmani
p9021
aVpopular
p9022
aVsoftwar
p9023
aVpackag
p9024
aVinclud
p9025
aVauto-upd
p9026
aVscript
p9027
aVdetect
p9028
aVdb
p9029
aVversion
p9030
aVappli
p9031
aVnecessari
p9032
aVchang
p9033
aVbest
p9034
aVway
p9035
aVlarger
p9036
aVscale
p9037
aVmultipl
p9038
aVproject
p9039
aVsometim
p9040
aVmultipl
p9041
aVenviron
p9042
aVlanguag
p9043
aVexist
p9044
aVcode
p9045
aVsimplifi
p9046
aVprocess
p9047
aVbest
p9048
aVroll
p9049
aVsolut
p9050
aVanyon
p9051
aVimplement
p9052
aVsometh
p9053
aVsimilar
p9054
aVintegr
p9055
aVsubvers
p9056
aVpost-commit
p9057
aVhook
p9058
aVbad
p9059
aVidea
p9060
aVsolut
p9061
aVsupport
p9062
aVmultipl
p9063
aVplatform
p9064
aVprefer
p9065
aVdefinit
p9066
aVneed
p9067
aVsupport
p9068
aVlinux/apache/mysql/php
p9069
aVstack
p9070
aVmajor
p9071
aVwork
p9072
aVplatform
p9073
aa(lp9074
Vlogic
p9075
aVreorder
p9076
aVcolumn
p9077
aVtabl
p9078
aVim
p9079
aVad
p9080
aVcolumn
p9081
aVtabl
p9082
aVmicrosoft
p9083
aVsql
p9084
aVserver
p9085
aVcontrol
p9086
aVcolumn
p9087
aVdisplay
p9088
aVlogic
p9089
aVqueri
p9090
aVdont
p9091
aVwant
p9092
aVmess
p9093
aVphysic
p9094
aVlayout
p9095
aVcolumn
p9096
aVdisk
p9097
aVlogic
p9098
aVgroup
p9099
aVcolumn
p9100
aVtogeth
p9101
aVpossibl
p9102
aVtool
p9103
aVsql
p9104
aVserver
p9105
aVmanag
p9106
aVstudio
p9107
aVlist
p9108
aVcontent
p9109
aVtabl
p9110
aVconveni
p9111
aVway
p9112
aVsql
p9113
aVmanag
p9114
aVstudio
p9115
aV"design"
p9116
aVmode
p9117
aVtabl
p9118
aVdrag
p9119
aVorder
p9120
aVcolumn
p9121
aVid
p9122
aVabl
p9123
aVraw
p9124
aVsql
p9125
aVperform
p9126
aVorder
p9127
aVscript
p9128
aVcommand
p9129
aVline
p9130
aa(lp9131
Vmodifi
p9132
aVxfdl
p9133
aVfile
p9134
aVupdat
p9135
aVxfdl
p9136
aVfile
p9137
aVextens
p9138
aVidentifi
p9139
aVxfdl
p9140
aVformat
p9141
aVdocument
p9142
aVfile
p9143
aVbelong
p9144
aVxml-base
p9145
aVdocument
p9146
aVtemplat
p9147
aVformat
p9148
aVstandard
p9149
aVformat
p9150
aVexactli
p9151
aVxml
p9152
aVfile
p9153
aVformat
p9154
aVhowev
p9155
aVcontain
p9156
aVlevel
p9157
aVencrypt
p9158
aVuse
p9159
aVsecur
p9160
aVcommun
p9161
aVview
p9162
aVxfdl
p9163
aVfile
p9164
aVuse
p9165
aVfile
p9166
aVviewer
p9167
aVfound
p9168
aVmodifi
p9169
aVfile
p9170
aVfilesave/sav
p9171
aVid
p9172
aVhowev
p9173
aVmodifi
p9174
aVfile
p9175
aVfli
p9176
aVsuggest
p9177
aVpossibl
p9178
aVupdat
p9179
aVsuccess
p9180
aVdecod
p9181
aVunzip
p9182
aVxfdl
p9183
aVxml
p9184
aVfile
p9185
aVedit
p9186
aVlook
p9187
aVway
p9188
aVre-encod
p9189
aVmodifi
p9190
aVxml
p9191
aVfile
p9192
aVbase-gzip
p9193
aVuse
p9194
aVrubi
p9195
aVcommand
p9196
aVline
p9197
aa(lp9198
Vfolder
p9199
aVproject
p9200
aVvisual
p9201
aVstudio
p9202
aVsolut
p9203
aVsplite
p9204
aVsolut
p9205
aVlogic
p9206
aVlayer
p9207
aVbest
p9208
aVuse
p9209
aVsepar
p9210
aVproject
p9211
aVgroup
p9212
aVfolder
p9213
aa(lp9214
Vxml
p9215
aVediting/view
p9216
aVsoftwar
p9217
aVsoftwar
p9218
aVrecommend
p9219
aVwork
p9220
aVedit
p9221
aVlarg
p9222
aVxml
p9223
aVschema
p9224
aVim
p9225
aVlook
p9226
aVwindow
p9227
aVlinux
p9228
aVsoftwar
p9229
aVdoesnt
p9230
aVcross
p9231
aVplatform
p9232
aVwant
p9233
aVsuggest
p9234
aVhelp
p9235
aVdeal
p9236
aVhuge
p9237
aVxml
p9238
aVfile
p9239
aa(lp9240
Vgood
p9241
aVtechnolog
p9242
aVpodcast
p9243
aVye
p9244
aVpodcast
p9245
aVnice
p9246
aVlittl
p9247
aVaudiobook
p9248
aVlisten
p9249
aVway
p9250
aVwork
p9251
aVcurrent
p9252
aVamount
p9253
aVpodcast
p9254
aVsearch
p9255
aVneedl
p9256
aVhaystack
p9257
aVhaystack
p9258
aVinternet
p9259
aVfill
p9260
aVmani
p9261
aV"hot
p9262
aVnew
p9263
aVgadgets"
p9264
aVstuff
p9265
aVmainli
p9266
aVnet
p9267
aVnowaday
p9268
aVmayb
p9269
aVanyon
p9270
aVgood
p9271
aVpodcast
p9272
aVpeopl
p9273
aVregard
p9274
aVwhole
p9275
aVsoftwar
p9276
aVlifecycl
p9277
aVunit
p9278
aVtest
p9279
aVcontin
p9280
aVintegr
p9281
aVdocument
p9282
aVdeploy
p9283
aVguy
p9284
aVgal
p9285
aVlisten
p9286
aVpleas
p9287
aVnote
p9288
aVcategor
p9289
aVsubject
p9290
aV%
p9291
aVaccur
p9292
aVmani
p9293
aVpodcast
p9294
aVcover
p9295
aVsever
p9296
aVarea
p9297
aVcategor
p9298
aVconsid
p9299
aV"main"
p9300
aVarea
p9301
aVgener
p9302
aVsoftwar
p9303
aVengin
p9304
aV/
p9305
aVproduct
p9306
aVstack
p9307
aVoverflow
p9308
aVinact
p9309
aVgood
p9310
aVlisten
p9311
aVtekpub
p9312
aVrequir
p9313
aVpaid
p9314
aVsubscript
p9315
aVsoftwar
p9316
aVengin
p9317
aVradio
p9318
aVfolder
p9319
aVperspect
p9320
aVdr
p9321
aVdobb
p9322
aVvideo
p9323
aVfeed
p9324
aVpragmat
p9325
aVpodcast
p9326
aVinact
p9327
aVmatter
p9328
aVagil
p9329
aVtoolkit
p9330
aVpodcast
p9331
aVstack
p9332
aVtrace
p9333
aVinact
p9334
aVparley
p9335
aVtechz
p9336
aVstartup
p9337
aVsuccess
p9338
aVpodcast
p9339
aVberkeley
p9340
aVcs
p9341
aVclass
p9342
aVlectur
p9343
aVfloss
p9344
aVweekli
p9345
aVlife
p9346
aVnet
p9347
aV/
p9348
aVvisual
p9349
aVstudio
p9350
aV/
p9351
aVmicrosoft
p9352
aVherd
p9353
aVcode
p9354
aVhanselminut
p9355
aVnet
p9356
aVrocks!
p9357
aVdeep
p9358
aVfri
p9359
aVbyte
p9360
aValtnet
p9361
aVpodcast
p9362
aVinact
p9363
aVpolymorph
p9364
aVpodcast
p9365
aVinconsist
p9366
aVsparkl
p9367
aVclient
p9368
aVsilverlight
p9369
aVpodcast
p9370
aVdnrtv!
p9371
aVspaghetti
p9372
aVcode
p9373
aVaspnet
p9374
aVpodcast
p9375
aVchannel
p9376
aVradio
p9377
aVtf
p9378
aVpowerscript
p9379
aVpodcast
p9380
aVthirsti
p9381
aVeleg
p9382
aVcode
p9383
aVinact
p9384
aVconnectedshow
p9385
aVcrafti
p9386
aVcoder
p9387
aVcode
p9388
aVqa
p9389
aVjqueri
p9390
aVyayqueri
p9391
aVoffici
p9392
aVjqueri
p9393
aVpodcast
p9394
aVjava
p9395
aV/
p9396
aVgroovi
p9397
aVjava
p9398
aVposs
p9399
aVgrail
p9400
aVpodcast
p9401
aVjava
p9402
aVtechnolog
p9403
aVinsid
p9404
aVbasement
p9405
aVcoder
p9406
aVrubi
p9407
aV/
p9408
aVrail
p9409
aVrailscast
p9410
aVrail
p9411
aVenvi
p9412
aVrubi
p9413
aVrail
p9414
aVpodcast
p9415
aVrubivers
p9416
aVrubi
p9417
aVweb
p9418
aVdesign
p9419
aV/
p9420
aVjavascript
p9421
aV/
p9422
aVajax
p9423
aVwebdevradio
p9424
aVboagworld
p9425
aVrissington
p9426
aVpodcast
p9427
aVajaxian
p9428
aVyui
p9429
aVtheater
p9430
aVunix
p9431
aV/
p9432
aVlinux
p9433
aV/
p9434
aVmac
p9435
aV/
p9436
aViphon
p9437
aVmac
p9438
aVnetwork
p9439
aVhacker
p9440
aVpublic
p9441
aVradio
p9442
aVlinux
p9443
aVoutlaw
p9444
aVmac
p9445
aVos
p9446
aVlugradio
p9447
aVlinux
p9448
aVradio
p9449
aVshow
p9450
aVinact
p9451
aVlinux
p9452
aVaction
p9453
aVshow!
p9454
aVlinux
p9455
aVkernel
p9456
aVmail
p9457
aVlist
p9458
aVlkml
p9459
aVsummari
p9460
aVpodcast
p9461
aVstanford
p9462
aViphon
p9463
aVprogram
p9464
aVclass
p9465
aVadvanc
p9466
aViphon
p9467
aVcours
p9468
aVmadison
p9469
aVarea
p9470
aVtechnic
p9471
aVcolleg
p9472
aVwwdc
p9473
aVsession
p9474
aVvideo
p9475
aVrequir
p9476
aVappl
p9477
aVregistr
p9478
aVsystem
p9479
aVadministr
p9480
aVsecur
p9481
aVinfrastructur
p9482
aVruna
p9483
aVradio
p9484
aVsecur
p9485
aVnow!
p9486
aVcrypto-gram
p9487
aVsecur
p9488
aVpodcast
p9489
aVhak
p9490
aVvmware
p9491
aVvmtn
p9492
aVwindow
p9493
aVweekli
p9494
aVpauldotcom
p9495
aVsecur
p9496
aVregist
p9497
aVsemi-coher
p9498
aVcomput
p9499
aVfeathercast
p9500
aVgener
p9501
aVtech
p9502
aV/
p9503
aVbusi
p9504
aVtekzilla
p9505
aVweek
p9506
aVtech
p9507
aVguardian
p9508
aVtech
p9509
aVweekli
p9510
aVpcmag
p9511
aVradio
p9512
aVpodcast
p9513
aVinact
p9514
aVentrepreneurship
p9515
aVcorner
p9516
aVmanag
p9517
aVtool
p9518
aV/
p9519
aVmisc
p9520
aV/
p9521
aVpodcast
p9522
aVnetwork
p9523
aVconvers
p9524
aVretrobit
p9525
aVpodcast
p9526
aVagenda
p9527
aVnetcast
p9528
aVcranki
p9529
aVgeek
p9530
aVcommand
p9531
aVline
p9532
aVfreelanc
p9533
aVradio
p9534
aVibm
p9535
aVdeveloperwork
p9536
aVregist
p9537
aVopen
p9538
aVseason
p9539
aVdrunk
p9540
aVretir
p9541
aVtechnometria
p9542
aVsod
p9543
aVradionerd
p9544
aVhacker
p9545
aVmedley
p9546
aa(lp9547
Vlearn
p9548
aVwrite
p9549
aVcompil
p9550
aVprefer
p9551
aVlanguag
p9552
aVc/c++
p9553
aVjava
p9554
aVrubi
p9555
aVlook
p9556
aVhelp
p9557
aVbooks/tutori
p9558
aVwrite
p9559
aVcompil
p9560
aVsimpli
p9561
aVeduc
p9562
aVpurpos
p9563
aVfamiliar
p9564
aVc/c++
p9565
aVjava
p9566
aVrubi
p9567
aVprefer
p9568
aVresourc
p9569
aVinvolv
p9570
aVgood
p9571
aVresourc
p9572
aVaccept
p9573
aa(lp9574
Vcalcul
p9575
aVstatist
p9576
aVim
p9577
aVwrite
p9578
aVapp
p9579
aVhelp
p9580
aVfacilit
p9581
aVresearch
p9582
aVpart
p9583
aVinvolv
p9584
aVstatist
p9585
aVcalcul
p9586
aVright
p9587
aVresearch
p9588
aVuse
p9589
aVprogram
p9590
aVcall
p9591
aVspss
p9592
aVpart
p9593
aVoutput
p9594
aVcare
p9595
aVlook
p9596
aVtheyr
p9597
aVrealli
p9598
aVconcern
p9599
aVvalu
p9600
aVproblem
p9601
aVbackground
p9602
aVstatist
p9603
aVcant
p9604
aVfigur
p9605
aVtest
p9606
aVcall
p9607
aVcalcul
p9608
aVthought
p9609
aVvalu
p9610
aVresult
p9611
aVf-test
p9612
aVstep
p9613
aVwikipedia
p9614
aVresult
p9615
aVdiffer
p9616
aa(lp9617
Vaspnet
p9618
aVbuilt
p9619
aVuser
p9620
aVprofil
p9621
aVvs
p9622
aVold
p9623
aVstile
p9624
aVuser
p9625
aVclass/tabl
p9626
aVlook
p9627
aVguidanc
p9628
aVregard
p9629
aVbest
p9630
aVpractic
p9631
aVuse
p9632
aVprofil
p9633
aVfeatur
p9634
aVaspnet
p9635
aVdecid
p9636
aVkept
p9637
aVbuilt-in
p9638
aVuser
p9639
aVprofil
p9640
aVcreat
p9641
aVdb
p9642
aVtabl
p9643
aVcolumn
p9644
aVdesir
p9645
aVfield
p9646
aVexampl
p9647
aVuser
p9648
aVzip
p9649
aVcode
p9650
aVzip
p9651
aVcode
p9652
aVtabl
p9653
aVwebconfig
p9654
aVxml
p9655
aVprofil
p9656
aVaccess
p9657
aVuser
p9658
aVprofil
p9659
aVaspnet
p9660
aVmechan
p9661
aVpros/con
p9662
aVthink
p9663
aVsinc
p9664
aVdont
p9665
aVprofil
p9666
aVbit
p9667
aVmatrix
p9668
aVright
p9669
aVprobabl
p9670
aVwhatev
p9671
aVwant
p9672
aVtabl
p9673
aVrout
p9674
aVeg
p9675
aVsql
p9676
aVuser
p9677
aVzip
p9678
aVcode
p9679
aVcurrent
p9680
aVuser;
p9681
aVdont
p9682
aVuse
p9683
aVaspnet
p9684
aVprofil
p9685
aa(lp9686
Vpass
p9687
aVenumer
p9688
aVvalu
p9689
aVweb
p9690
aVservic
p9691
aVdilemma
p9692
aVbasic
p9693
aVshare
p9694
aVenumer
p9695
aVapplic
p9696
aVuser
p9697
aVupload
p9698
aVdocument
p9699
aVfront-end
p9700
aVapplic
p9701
aVweb
p9702
aVapplic
p9703
aVcall
p9704
aVweb
p9705
aVservic
p9706
aVback-end
p9707
aVapplic
p9708
aVpass
p9709
aVdocument
p9710
aVback-end
p9711
aVapp
p9712
aVdocument
p9713
aVinsert
p9714
aVrow
p9715
aVdocument
p9716
aVtabl
p9717
aVdocument
p9718
aVtype
p9719
aVpossibl
p9720
aVdocument
p9721
aVtype
p9722
aVinvoic
p9723
aVcontract
p9724
aVetc
p9725
aVpass
p9726
aVparamet
p9727
aVweb
p9728
aVservic
p9729
aVuploaddocu
p9730
aVmethod
p9731
aVquestion
p9732
aVtype
p9733
aVpossibl
p9734
aVvalu
p9735
aVparamet
p9736
aVsinc
p9737
aVneed
p9738
aVhardcod
p9739
aVvalu
p9740
aVapplic
p9741
aVthink
p9742
aVok
p9743
aVuse
p9744
aVdescript
p9745
aVstring
p9746
aVinvoic
p9747
aVcontract
p9748
aVworkord
p9749
aVsignedworkord
p9750
aVmayb
p9751
aVapproach
p9752
aVcreat
p9753
aVdocumenttyp
p9754
aVenumer
p9755
aVapplic
p9756
aVreproduc
p9757
aVsecond
p9758
aVapplic
p9759
aVpass
p9760
aVcorrespond
p9761
aVinteg
p9762
aVvalu
p9763
aVweb
p9764
aVservic
p9765
aa(lp9766
Vsingl
p9767
aVinfluenti
p9768
aVbook
p9769
aVeveri
p9770
aVprogramm
p9771
aVread
p9772
aVtime
p9773
aVtell
p9774
aVread
p9775
aVspecif
p9776
aVbook
p9777
aVbegin
p9778
aVcareer
p9779
aVbook
p9780
aVlist
p9781
aVvari
p9782
aVcover
p9783
aVwide
p9784
aVrang
p9785
aVthing
p9786
aVsearch
p9787
aVuse
p9788
aVsearch
p9789
aVbox
p9790
aVupper-right
p9791
aVcorner
p9792
aVsearch
p9793
aVanswer
p9794
aVcurrent
p9795
aVquestion
p9796
aVuse
p9797
aVexampl
p9798
aa(lp9799
Vexperi
p9800
aVprotocol
p9801
aVbuffer
p9802
aVlook
p9803
aVinform
p9804
aVgoogl
p9805
aVprotocol
p9806
aVbuffer
p9807
aVdata
p9808
aVinterchang
p9809
aVformat
p9810
aVanyon
p9811
aVplay
p9812
aVcode
p9813
aVcreat
p9814
aVproject
p9815
aVim
p9816
aVcurrent
p9817
aVuse
p9818
aVxml
p9819
aVpython
p9820
aVproject
p9821
aVstructur
p9822
aVcontent
p9823
aVcreat
p9824
aVhand
p9825
aVtext
p9826
aVeditor
p9827
aVwonder
p9828
aVgener
p9829
aVopinion
p9830
aVprotocol
p9831
aVbuffer
p9832
aVuser-fac
p9833
aVinput
p9834
aVformat
p9835
aVspeed
p9836
aVbreviti
p9837
aVbenefit
p9838
aVdefinit
p9839
aVseem
p9840
aVmani
p9841
aVfactor
p9842
aVactual
p9843
aVgener
p9844
aVprocess
p9845
aVdata
p9846
aa(lp9847
Vmatch
p9848
aVuse
p9849
aVpreg_replac
p9850
aVphp
p9851
aVtri
p9852
aVgrab
p9853
aVcapit
p9854
aVletter
p9855
aVcoupl
p9856
aVword
p9857
aVwrap
p9858
aVspan
p9859
aVtag
p9860
aVuse
p9861
aVpreg_replac
p9862
aVextract
p9863
aVwrap
p9864
aVpurpos
p9865
aVoutput
p9866
aVanyth
p9867
aa(lp9868
Vnet
p9869
aVunit
p9870
aVtest
p9871
aVpackag
p9872
aVbit
p9873
aVnet
p9874
aVfew-year
p9875
aVuse
p9876
aVfull-tim
p9877
aVwonder
p9878
aVgood
p9879
aVunit
p9880
aVtest
p9881
aVpackag
p9882
aVday
p9883
aVim
p9884
aVfamiliar
p9885
aVnunit
p9886
aVyear
p9887
aVplay
p9888
aVbriefli
p9889
aVironrubi
p9890
aVgoal
p9891
aVsometh
p9892
aVrspec
p9893
aVdont
p9894
aVmuch
p9895
aVrealis
p9896
aVgoogl
p9897
aVcall
p9898
aVday
p9899
aVbeliev
p9900
aVim
p9901
aVinform
p9902
aVrespons
p9903
aVask
p9904
aVquestion
p9905
aVsuggest
p9906
aa(lp9907
Vternari
p9908
aVexpress
p9909
aVwork
p9910
aVtri
p9911
aVset
p9912
aVflag
p9913
aVshow
p9914
aVhide
p9915
aVpage
p9916
aVelement
p9917
aVdisplay
p9918
aVexpress
p9919
aVfals
p9920
aa(lp9921
Vfeder
p9922
aVsync
p9923
aVsubvers
p9924
aVserver
p9925
aVpossibl
p9926
aVcreat
p9927
aV"federated"
p9928
aVsubvers
p9929
aVserver
p9930
aVserver
p9931
aVlocat
p9932
aVlocat
p9933
aVb
p9934
aVsync
p9935
aVlocal
p9936
aVversion
p9937
aVrepositori
p9938
aVautomat
p9939
aVway
p9940
aVsomeon
p9941
aVlocat
p9942
aVinteract
p9943
aVrepositori
p9944
aVaccess
p9945
aVrespect
p9946
aVlocal
p9947
aVserver
p9948
aVtherefor
p9949
aVfaster
p9950
aVrespons
p9951
aVtime
p9952
aa(lp9953
Vmenu
p9954
aVrequir
p9955
aVuser
p9956
aVpress
p9957
aVenter
p9958
aVselect
p9959
aVive
p9960
aVmenu
p9961
aVpython
p9962
aVpart
p9963
aVeasi
p9964
aVim
p9965
aVuse
p9966
aVselect
p9967
aVuser
p9968
aVproblem
p9969
aVinput
p9970
aVrequir
p9971
aVuser
p9972
aVpress
p9973
aVenter
p9974
aVselect
p9975
aVway
p9976
aVprogram
p9977
aVact
p9978
aVimmedi
p9979
aVkeystrok
p9980
aVive
p9981
aVgreat
p9982
aVsometh
p9983
aa(lp9984
Vwiggl
p9985
aVmous
p9986
aVok
p9987
aVbit
p9988
aVvaniti
p9989
aVapp
p9990
aVsituat
p9991
aVtoday
p9992
aVwork
p9993
aVtrain
p9994
aVclass
p9995
aVmachin
p9996
aVset
p9997
aVlock
p9998
aVeveri
p9999
aVminut
p10000
aVtrainer
p10001
aVexcit
p10002
aVtalk
p10003
aVoppos
p10004
aVchang
p10005
aVslide
p10006
aVmachin
p10007
aVlock
p10008
aVid
p10009
aVwrite
p10010
aVteeni
p10011
aVapp
p10012
aVtaskbar
p10013
aVicon
p10014
aVmove
p10015
aVmous
p10016
aVpixel
p10017
aVeveri
p10018
aVminut
p10019
aVway
p10020
aVdelphi
p10021
aVstrong
p10022
aVlanguag
p10023
aVim
p10024
aVmove
p10025
aVc#
p10026
aVwork
p10027
aVid
p10028
aVpath
p10029
aVleast
p10030
aVresist
p10031
aa(lp10032
Vlocat
p10033
aVtext
p10034
aVimag
p10035
aVcurrent
p10036
aVwork
p10037
aVproject
p10038
aVgoal
p10039
aVlocat
p10040
aVtext
p10041
aVimag
p10042
aVocr
p10043
aVtext
p10044
aVintent
p10045
aVwant
p10046
aVbasic
p10047
aVbound
p10048
aVtext
p10049
aVimag
p10050
aVuse
p10051
aVaforgenet
p10052
aVimag
p10053
aVcompon
p10054
aVmanipul
p10055
aVassist
p10056
aVsens
p10057
aVupdat
p10058
aV//
p10059
aVive
p10060
aVsinc
p10061
aVrout
p10062
aVproject
p10063
aVhowev
p10064
aVattempt
p10065
aVtext
p10066
aVuse
p10067
aVmodi
p10068
aVmicrosoft
p10069
aVoffic
p10070
aVdocument
p10071
aVimag
p10072
aVocr
p10073
aVimag
p10074
aVpull
p10075
aVtext
p10076
aVeas
p10077
aa(lp10078
Vpython
p10079
aVos
p10080
aVneed
p10081
aVlook
p10082
aVim
p10083
aVwindow
p10084
aVunix
p10085
aVetc
p10086
aa(lp10087
Vtool
p10088
aVpeopl
p10089
aVuse
p10090
aVcreat
p10091
aVdata
p10092
aVdictionari
p10093
aVproject
p10094
aVwork
p10095
aVcoupl
p10096
aVdatabas
p10097
aVtabl
p10098
aVcolumn
p10099
aVdatabas
p10100
aVdescript
p10101
aVset
p10102
aVextend
p10103
aVproperti
p10104
aVsql
p10105
aVpart
p10106
aVdocument
p10107
aVclient
p10108
aVneed
p10109
aVproduc
p10110
aVdata
p10111
aVdictionari
p10112
aVshow
p10113
aVtabl
p10114
aVcolumn
p10115
aVcollect
p10116
aVmeta
p10117
aVdata
p10118
aVdata-typ
p10119
aVoption
p10120
aVconstraint
p10121
aVanyon
p10122
aVuse
p10123
aVtool
p10124
aVautomat
p10125
aVcreat
p10126
aVkind
p10127
aVdocument
p10128
aVtool
p10129
aVuse
p10130
aVuse
p10131
aVdata
p10132
aVdictionari
p10133
aVcreator
p10134
aVawesom
p10135
aVdoesnt
p10136
aVseem
p10137
aVdata
p10138
aVtype
p10139
aVoption
p10140
aVwant
p10141
aVcustom
p10142
aVfield
p10143
aVfill
p10144
aa(lp10145
Vtripl
p10146
aVquot
p10147
aVdelimit
p10148
aVdatabound
p10149
aVjavascript
p10150
aVstring
p10151
aVparamet
p10152
aVaspnet
p10153
aVdelimit
p10154
aVjavascript
p10155
aVdatabound
p10156
aVstring
p10157
aVparamet
p10158
aVanchor
p10159
aVonclick
p10160
aVevent
p10161
aVanchor
p10162
aVtag
p10163
aVaspnet
p10164
aVrepeat
p10165
aVcontrol
p10166
aVonclick
p10167
aVevent
p10168
aVanchor
p10169
aVcontain
p10170
aVcall
p10171
aVjavascript
p10172
aVfunction
p10173
aVjavascript
p10174
aVfunciton
p10175
aVstring
p10176
aVinput
p10177
aVparamet
p10178
aVstring
p10179
aVparamet
p10180
aVpopul
p10181
aVdatabound
p10182
aVvalu
p10183
aVrepeat
p10184
aVneed
p10185
aVdoubl
p10186
aVquot
p10187
aVcontainerdataitem
p10188
aVneed
p10189
aVsingl
p10190
aVquot
p10191
aVonclick
p10192
aVneed
p10193
aVdelimit
p10194
aVtripl
p10195
aVquot
p10196
aVinput
p10197
aVstring
p10198
aVparamet
p10199
aVjavascript
p10200
aVfunction
p10201
aVcall
p10202
aVsinc
p10203
aVcant
p10204
aVuse
p10205
aVsingl
p10206
aVquot
p10207
aVensur
p10208
aVjavascript
p10209
aVfunction
p10210
aVinput
p10211
aVparamet
p10212
aVstring
p10213
aVinteg
p10214
aVextra
p10215
aVquot
p10216
aVinput
p10217
aVstring
p10218
aVparamet
p10219
aVjavascript
p10220
aVfunction
p10221
aVthink
p10222
aVim
p10223
aVpass
p10224
aVinteg
p10225
aVcheer
p10226
aVadvanc
p10227
aVknowledg
p10228
aVdrop
p10229
aVanchor
p10230
aVjavascript
p10231
aa(lp10232
Vcsv
p10233
aVfile
p10234
aVimport
p10235
aVnet
p10236
aVrealiz
p10237
aVnewbi
p10238
aVquestion
p10239
aVim
p10240
aVlook
p10241
aVsimpl
p10242
aVsolut
p10243
aVseem
p10244
aVbest
p10245
aVway
p10246
aVimport
p10247
aVcsv
p10248
aVfile
p10249
aVstrongly-typ
p10250
aVdata
p10251
aVstructur
p10252
aVsimpl
p10253
aV=
p10254
aa(lp10255
Vmap
p10256
aVlatitude/longitud
p10257
aVdistort
p10258
aVmap
p10259
aVbunch
p10260
aVlatitude/longitud
p10261
aVpair
p10262
aVmap
p10263
aVx/i
p10264
aVcoordin
p10265
aVgeograph
p10266
aVdistort
p10267
aVmap
p10268
aVlatitude/longitud
p10269
aVpair
p10270
aVwant
p10271
aVplot
p10272
aVmap
p10273
aVbest
p10274
aVpossibl
p10275
aVdecid
p10276
aVcreat
p10277
aVsystem
p10278
aVlinear
p10279
aVequat
p10280
aVnearest
p10281
aVlat/long
p10282
aVpoint
p10283
aVcomput
p10284
aVtransform
p10285
aVdoesnt
p10286
aVwork
p10287
aVsinc
p10288
aVlinear
p10289
aVsystem
p10290
aVcant
p10291
aVuse
p10292
aVnearbi
p10293
aVpoint
p10294
aVcant
p10295
aVassum
p10296
aVnorth
p10297
aVexist
p10298
aVlat/long->x/i
p10299
aVmap
p10300
aVedit
p10301
aVmercat
p10302
aVproject
p10303
aVanyth
p10304
aVarbitrarili
p10305
aVdistort
p10306
aVreadabl
p10307
aVthink
p10308
aVsubway
p10309
aVmap
p10310
aVwant
p10311
aVuse
p10312
aVnearest
p10313
aVmap
p10314
aVdistort
p10315
aVpart
p10316
aVmap
p10317
aVdoesnt
p10318
aVaffect
p10319
aVmap
p10320
aVim
p10321
aVtri
p10322
aVcomput
p10323
aVentir
p10324
aVmap
p10325
aVsmall
p10326
aVgeograph
p10327
aVarea
p10328
aVneed
p10329
aVworri
p10330
aVglobe--flat-earth
p10331
aVassumpt
p10332
aVgood
p10333
aa(lp10334
Vredirecttoact
p10335
aVaspnet
p10336
aVmvc
p10337
aVrequest
p10338
aVdata
p10339
aVuse
p10340
aVaspnet
p10341
aVmvc
p10342
aVsituat
p10343
aVform
p10344
aVsubmiss
p10345
aVrequir
p10346
aVsituat
p10347
aVencount
p10348
aVvalid
p10349
aVerror
p10350
aVform
p10351
aVsubmiss
p10352
aVneed
p10353
aVredirect
p10354
aVform
p10355
aVurl
p10356
aVreflect
p10357
aVurl
p10358
aVform
p10359
aVaction
p10360
aVpage
p10361
aVsubmit
p10362
aVrequir
p10363
aVform
p10364
aVcontain
p10365
aVorigin
p10366
aVed
p10367
aVdata
p10368
aVuser
p10369
aVconveni
p10370
aVvalid
p10371
aVpurpos
p10372
aVpass
p10373
aVdata
p10374
aVredirecttoact
p10375
aVuse
p10376
aVviewdata
p10377
aVparamet
p10378
aVparamet
p10379
aVchang
p10380
aVparamet
p10381
aa(lp10382
Vmultipl
p10383
aVdatacontext
p10384
aVclass
p10385
aVappropri
p10386
aVorder
p10387
aVfulli
p10388
aVuse
p10389
aVlinqtosql
p10390
aVaspnet
p10391
aVapplic
p10392
aVnecessari
p10393
aVcreat
p10394
aVdatacontext
p10395
aVclass
p10396
aVusual
p10397
aVuse
p10398
aVdesign
p10399
aVvs
p10400
aVui
p10401
aVperspect
p10402
aVdatacontext
p10403
aVdesign
p10404
aVsection
p10405
aVdatabas
p10406
aVexpos
p10407
aVlinqtosql
p10408
aVintegr
p10409
aVset
p10410
aVorm
p10411
aVfeatur
p10412
aVlinqtosql
p10413
aVquestion
p10414
aVset
p10415
aVproject
p10416
aVuse
p10417
aVlarg
p10418
aVdatabas
p10419
aVtabl
p10420
aVinterconnect
p10421
aVway
p10422
aVforeign
p10423
aVkey
p10424
aVinclin
p10425
aVhuge
p10426
aVdatacontext
p10427
aVclass
p10428
aVmodel
p10429
aVentir
p10430
aVdatabas
p10431
aVway
p10432
aVtheori
p10433
aVdont
p10434
aVneed
p10435
aVpractic
p10436
aVuse
p10437
aVforeign
p10438
aVkey
p10439
aVconnect
p10440
aVgener
p10441
aVlinqtosql
p10442
aVeasili
p10443
aVrelat
p10444
aVobject
p10445
aVcode
p10446
aVinsert
p10447
aVrelat
p10448
aVobject
p10449
aVetc
p10450
aVhowev
p10451
aVthought
p10452
aVthink
p10453
aVsens
p10454
aVcreat
p10455
aVmultipl
p10456
aVdatacontext
p10457
aVclass
p10458
aVrelat
p10459
aVspecif
p10460
aVnamespac
p10461
aVlogic
p10462
aVinterrel
p10463
aVsection
p10464
aVdatabas
p10465
aVmain
p10466
aVconcern
p10467
aVinstanti
p10468
aVdispos
p10469
aVhuge
p10470
aVdatacontext
p10471
aVclass
p10472
aVtime
p10473
aVindividu
p10474
aVoper
p10475
aVrelat
p10476
aVspecif
p10477
aVarea
p10478
aVdatabas
p10479
aVimpos
p10480
aVunnecessari
p10481
aVimposit
p10482
aVapplic
p10483
aVresourc
p10484
aVaddit
p10485
aVeasier
p10486
aVcreat
p10487
aVmanag
p10488
aVsmaller
p10489
aVdatacontext
p10490
aVfile
p10491
aVbig
p10492
aVthing
p10493
aVdistant
p10494
aVsection
p10495
aVdatabas
p10496
aVnavig
p10497
aVlinqtosql
p10498
aVchain
p10499
aVrelationship
p10500
aVconnect
p10501
aVactual
p10502
aVdatabas
p10503
aVaddit
p10504
aVtabl
p10505
aVclass
p10506
aVexist
p10507
aVdatacontext
p10508
aVthought
p10509
aVexperi
p10510
aVmultipl
p10511
aVdatacontext
p10512
aVcorrespond
p10513
aVdb
p10514
aVnamespac
p10515
aVappropri
p10516
aVplace
p10517
aVaddit
p10518
aVlarg
p10519
aVdatacontext
p10520
aVclass
p10521
aVcorrespond
p10522
aVwhole
p10523
aVdb
p10524
aa(lp10525
Vlanguag
p10526
aVuse
p10527
aVpostgresql
p10528
aVtrigger
p10529
aVstore
p10530
aVprocedur
p10531
aVpostgresql
p10532
aVinterest
p10533
aVsupport
p10534
aVsever
p10535
aVlanguag
p10536
aVwrite
p10537
aVstore
p10538
aVprocedur
p10539
aVuse
p10540
aa(lp10541
Vbest
p10542
aVway
p10543
aVavoid
p10544
aVsql
p10545
aVinject
p10546
aVattack
p10547
aVive
p10548
aVprovid
p10549
aVsolut
p10550
aVpython
p10551
aVpleas
p10552
aVflesh
p10553
aVexampl
p10554
aVlanguag
p10555
aa(lp10556
Vcpu
p10557
aVthrottl
p10558
aVc++
p10559
aVwonder
p10560
aVeleg
p10561
aVway
p10562
aVset
p10563
aVmaximum
p10564
aVcpu
p10565
aVload
p10566
aVparticular
p10567
aVthread
p10568
aVintens
p10569
aVcalcul
p10570
aVright
p10571
aVlocat
p10572
aVtime
p10573
aVconsum
p10574
aVloop
p10575
aVthread
p10576
aVcompress
p10577
aVuse
p10578
aVhardcod
p10579
aVvalu
p10580
aVsure
p10581
aVloop
p10582
aVcontinu
p10583
aVcertain
p10584
aVperiod
p10585
aVtime
p10586
aVsleep
p10587
aVcertain
p10588
aVminim
p10589
aVtime
p10590
aVjob
p10591
aVie
p10592
aVguarante
p10593
aVthread
p10594
aVuse
p10595
aV%
p10596
aVcpu
p10597
aVhowev
p10598
aVbehavior
p10599
aVdepend
p10600
aVnumber
p10601
aVcpu
p10602
aVcore
p10603
aVhuge
p10604
aVdisadvantag
p10605
aVsimpli
p10606
aVugli
p10607
aVsmaller
p10608
aVdisadvantag
p10609
aVidea
p10610
aa(lp10611
Vpython
p10612
aVdiffer
p10613
aVuse
p10614
aVmani
p10615
aVplace
p10616
aVuse
p10617
aVinterchang
p10618
aVuse
p10619
aag0
(cnltk.text
Text
p10620
g2
Ntp10621
Rp10622
(dp10623
S'tokens'
p10624
(lp10625
S'c#'
p10626
aS'winforms'
p10627
aS'type-conversion'
p10628
aS'opacity'
p10629
asg34
Vc# winforms type-conversion opacity...
p10630
sbag0
(g10620
g2
Ntp10631
Rp10632
(dp10633
g10624
(lp10634
S'html'
p10635
aS'css'
p10636
aS'css3'
p10637
aS'internet-explorer-7'
p10638
asg34
Vhtml css css3 internet-explorer-7...
p10639
sbag0
(g10620
g2
Ntp10640
Rp10641
(dp10642
g10624
(lp10643
S'c#'
p10644
aS'code-generation'
p10645
aS'j#'
p10646
aS'visualj#'
p10647
asg34
Vc# code-generation j# visualj#...
p10648
sbag0
(g10620
g2
Ntp10649
Rp10650
(dp10651
g10624
(lp10652
S'c#'
p10653
aS'.net'
p10654
aS'datetime'
p10655
asg34
Vc# .net datetime...
p10656
sbag0
(g10620
g2
Ntp10657
Rp10658
(dp10659
g10624
(lp10660
S'datediff'
p10661
asg34
Vdatediff...
p10662
sbag0
(g10620
g2
Ntp10663
Rp10664
(dp10665
g10624
(lp10666
S'html'
p10667
aS'browser'
p10668
aS'timezone'
p10669
aS'timezoneoffset'
p10670
asg34
Vhtml browser timezone timezoneoffset...
p10671
sbag0
(g10620
g2
Ntp10672
Rp10673
(dp10674
g10624
(lp10675
S'.net'
p10676
aS'visual-studio'
p10677
aS'math'
p10678
aS'msdn'
p10679
asg34
V.net visual-studio math msdn...
p10680
sbag0
(g10620
g2
Ntp10681
Rp10682
(dp10683
g10624
(lp10684
S'c#'
p10685
aS'linq'
p10686
aS'web-services'
p10687
aS'.net-3.5'
p10688
asg34
Vc# linq web-services .net-3.5...
p10689
sbag0
(g10620
g2
Ntp10690
Rp10691
(dp10692
g10624
(lp10693
S'mysql'
p10694
aS'database'
p10695
aS'binary-data'
p10696
aS'data-storage'
p10697
asg34
Vmysql database binary-data data-storage...
p10698
sbag0
(g10620
g2
Ntp10699
Rp10700
(dp10701
g10624
(lp10702
S'performance'
p10703
aS'algorithm'
p10704
aS'language-agnostic'
p10705
aS'unix'
p10706
aS'pi'
p10707
asg34
Vperformance algorithm language-agnostic unix pi...
p10708
sbag0
(g10620
g2
Ntp10709
Rp10710
(dp10711
g10624
(lp10712
S'mysql'
p10713
aS'database'
p10714
aS'triggers'
p10715
asg34
Vmysql database triggers...
p10716
sbag0
(g10620
g2
Ntp10717
Rp10718
(dp10719
g10624
(lp10720
S'c++'
p10721
aS'c'
p10722
aS'sockets'
p10723
aS'mainframe'
p10724
aS'zos'
p10725
asg34
Vc++ c sockets mainframe zos...
p10726
sbag0
(g10620
g2
Ntp10727
Rp10728
(dp10729
g10624
(lp10730
S'sql-server'
p10731
aS'datatable'
p10732
aS'rdbms'
p10733
asg34
Vsql-server datatable rdbms...
p10734
sbag0
(g10620
g2
Ntp10735
Rp10736
(dp10737
g10624
(lp10738
S'c#'
p10739
aS'.net'
p10740
aS'vb.net'
p10741
aS'timer'
p10742
asg34
Vc# .net vb.net timer...
p10743
sbag0
(g10620
g2
Ntp10744
Rp10745
(dp10746
g10624
(lp10747
S'php'
p10748
aS'plugins'
p10749
aS'architecture'
p10750
aS'hook'
p10751
asg34
Vphp plugins architecture hook...
p10752
sbag0
(g10620
g2
Ntp10753
Rp10754
(dp10755
g10624
(lp10756
S'html'
p10757
aS'form-submit'
p10758
aS'html-form'
p10759
aS'submit-button'
p10760
asg34
Vhtml form-submit html-form submit-button...
p10761
sbag0
(g10620
g2
Ntp10762
Rp10763
(dp10764
g10624
(lp10765
S'c#'
p10766
aS'linq'
p10767
aS'.net-3.5'
p10768
asg34
Vc# linq .net-3.5...
p10769
sbag0
(g10620
g2
Ntp10770
Rp10771
(dp10772
g10624
(lp10773
S'linq'
p10774
aS'.net-3.5'
p10775
asg34
Vlinq .net-3.5...
p10776
sbag0
(g10620
g2
Ntp10777
Rp10778
(dp10779
g10624
(lp10780
S'ruby'
p10781
aS'rdoc'
p10782
asg34
Vruby rdoc...
p10783
sbag0
(g10620
g2
Ntp10784
Rp10785
(dp10786
g10624
(lp10787
S'eclipse'
p10788
aS'svn'
p10789
aS'aptana'
p10790
aS'subclipse'
p10791
asg34
Veclipse svn aptana subclipse...
p10792
sbag0
(g10620
g2
Ntp10793
Rp10794
(dp10795
g10624
(lp10796
S'flex'
p10797
aS'actionscript-3'
p10798
aS'air'
p10799
asg34
Vflex actionscript-3 air...
p10800
sbag0
(g10620
g2
Ntp10801
Rp10802
(dp10803
g10624
(lp10804
S'php'
p10805
aS'sql'
p10806
aS'database'
p10807
aS'flat-file'
p10808
asg34
Vphp sql database flat-file...
p10809
sbag0
(g10620
g2
Ntp10810
Rp10811
(dp10812
g10624
(lp10813
S'linux'
p10814
aS'winapi'
p10815
aS'visual-c++'
p10816
aS'unix'
p10817
aS'timer'
p10818
asg34
Vlinux winapi visual-c++ unix timer...
p10819
sbag0
(g10620
g2
Ntp10820
Rp10821
(dp10822
g10624
(lp10823
S'svn'
p10824
aS'tortoisesvn'
p10825
aS'branch'
p10826
aS'branching-and-merging'
p10827
asg34
Vsvn tortoisesvn branch branching-and-merging...
p10828
sbag0
(g10620
g2
Ntp10829
Rp10830
(dp10831
g10624
(lp10832
S'.net'
p10833
aS'performance'
p10834
aS'memory-leaks'
p10835
aS'com-interop'
p10836
asg34
V.net performance memory-leaks com-interop...
p10837
sbag0
(g10620
g2
Ntp10838
Rp10839
(dp10840
g10624
(lp10841
S'windows'
p10842
aS'svn'
p10843
aS'64bit'
p10844
asg34
Vwindows svn 64bit...
p10845
sbag0
(g10620
g2
Ntp10846
Rp10847
(dp10848
g10624
(lp10849
S'c#'
p10850
aS'sql'
p10851
aS'vb.net'
p10852
aS'ascii'
p10853
aS'hex'
p10854
asg34
Vc# sql vb.net ascii hex...
p10855
sbag0
(g10620
g2
Ntp10856
Rp10857
(dp10858
g10624
(lp10859
S'asp.net'
p10860
aS'sql'
p10861
aS'navigation'
p10862
aS'membership'
p10863
aS'sitemap'
p10864
asg34
Vasp.net sql navigation membership sitemap...
p10865
sbag0
(g10620
g2
Ntp10866
Rp10867
(dp10868
g10624
(lp10869
S'java'
p10870
aS'xml'
p10871
aS'csv'
p10872
aS'data-conversion'
p10873
asg34
Vjava xml csv data-conversion...
p10874
sbag0
(g10620
g2
Ntp10875
Rp10876
(dp10877
g10624
(lp10878
S'java'
p10879
aS'php'
p10880
aS'oop'
p10881
aS'theory'
p10882
asg34
Vjava php oop theory...
p10883
sbag0
(g10620
g2
Ntp10884
Rp10885
(dp10886
g10624
(lp10887
S'mysql'
p10888
aS'sql-server'
p10889
aS'csv'
p10890
aS'bcp'
p10891
asg34
Vmysql sql-server csv bcp...
p10892
sbag0
(g10620
g2
Ntp10893
Rp10894
(dp10895
g10624
(lp10896
S'.net'
p10897
aS'database'
p10898
aS'xsd'
p10899
asg34
V.net database xsd...
p10900
sbag0
(g10620
g2
Ntp10901
Rp10902
(dp10903
g10624
(lp10904
S'c#'
p10905
aS'.net'
p10906
aS'compression'
p10907
aS'decompression'
p10908
asg34
Vc# .net compression decompression...
p10909
sbag0
(g10620
g2
Ntp10910
Rp10911
(dp10912
g10624
(lp10913
S'php'
p10914
aS'apache'
p10915
aS'download'
p10916
aS'analytics'
p10917
asg34
Vphp apache download analytics...
p10918
sbag0
(g10620
g2
Ntp10919
Rp10920
(dp10921
g10624
(lp10922
S'.net'
p10923
aS'asp.net'
p10924
aS'svn'
p10925
aS'versioning'
p10926
asg34
V.net asp.net svn versioning...
p10927
sbag0
(g10620
g2
Ntp10928
Rp10929
(dp10930
g10624
(lp10931
S'windows'
p10932
aS'embed'
p10933
aS'media'
p10934
asg34
Vwindows embed media...
p10935
sbag0
(g10620
g2
Ntp10936
Rp10937
(dp10938
g10624
(lp10939
S'sql-server'
p10940
aS'database'
p10941
aS'svn'
p10942
aS'version-control'
p10943
asg34
Vsql-server database svn version-control...
p10944
sbag0
(g10620
g2
Ntp10945
Rp10946
(dp10947
g10624
(lp10948
S'c#'
p10949
aS'html'
p10950
aS'web-services'
p10951
aS'printing'
p10952
asg34
Vc# html web-services printing...
p10953
sbag0
(g10620
g2
Ntp10954
Rp10955
(dp10956
g10624
(lp10957
S'annotations'
p10958
aS'youtube'
p10959
aS'reverse-engineering'
p10960
asg34
Vannotations youtube reverse-engineering...
p10961
sbag0
(g10620
g2
Ntp10962
Rp10963
(dp10964
g10624
(lp10965
S'php'
p10966
aS'apache'
p10967
aS'virtualhost'
p10968
asg34
Vphp apache virtualhost...
p10969
sbag0
(g10620
g2
Ntp10970
Rp10971
(dp10972
g10624
(lp10973
S'algorithm'
p10974
aS'language-agnostic'
p10975
aS'colors'
p10976
aS'color-space'
p10977
asg34
Valgorithm language-agnostic colors color-space...
p10978
sbag0
(g10620
g2
Ntp10979
Rp10980
(dp10981
g10624
(lp10982
S'c#'
p10983
aS'.net'
p10984
aS'asp.net'
p10985
aS'internationalization'
p10986
aS'globalization'
p10987
asg34
Vc# .net asp.net internationalization globalization...
p10988
sbag0
(g10620
g2
Ntp10989
Rp10990
(dp10991
g10624
(lp10992
S'sql-server'
p10993
aS'migration'
p10994
asg34
Vsql-server migration...
p10995
sbag0
(g10620
g2
Ntp10996
Rp10997
(dp10998
g10624
(lp10999
S'php'
p11000
aS'arrays'
p11001
aS'cloud'
p11002
aS'tag-cloud'
p11003
asg34
Vphp arrays cloud tag-cloud...
p11004
sbag0
(g10620
g2
Ntp11005
Rp11006
(dp11007
g10624
(lp11008
S'windows'
p11009
aS'mailto'
p11010
asg34
Vwindows mailto...
p11011
sbag0
(g10620
g2
Ntp11012
Rp11013
(dp11014
g10624
(lp11015
S'mysql'
p11016
aS'sql-server'
p11017
asg34
Vmysql sql-server...
p11018
sbag0
(g10620
g2
Ntp11019
Rp11020
(dp11021
g10624
(lp11022
S'git'
p11023
aS'version-control'
p11024
aS'github'
p11025
aS'dvcs'
p11026
asg34
Vgit version-control github dvcs...
p11027
sbag0
(g10620
g2
Ntp11028
Rp11029
(dp11030
g10624
(lp11031
S'.net'
p11032
aS'database'
p11033
aS'sqlite'
p11034
asg34
V.net database sqlite...
p11035
sbag0
(g10620
g2
Ntp11036
Rp11037
(dp11038
g10624
(lp11039
S'php'
p11040
aS'forms'
p11041
asg34
Vphp forms...
p11042
sbag0
(g10620
g2
Ntp11043
Rp11044
(dp11045
g10624
(lp11046
S'c#'
p11047
aS'.net'
p11048
aS'scripting'
p11049
aS'compiler'
p11050
asg34
Vc# .net scripting compiler...
p11051
sbag0
(g10620
g2
Ntp11052
Rp11053
(dp11054
g10624
(lp11055
S'c++'
p11056
ag10722
aS'linux'
p11057
aS'gtk'
p11058
aS'x11'
p11059
asg34
Vc++ c linux gtk x11...
p11060
sbag0
(g10620
g2
Ntp11061
Rp11062
(dp11063
g10624
(lp11064
S'c++'
p11065
aS'berkeley-db'
p11066
asg34
Vc++ berkeley-db...
p11067
sbag0
(g10620
g2
Ntp11068
Rp11069
(dp11070
g10624
(lp11071
S'svn'
p11072
aS'collaboration'
p11073
asg34
Vsvn collaboration...
p11074
sbag0
(g10620
g2
Ntp11075
Rp11076
(dp11077
g10624
(lp11078
S'asp.net'
p11079
aS'visual-studio'
p11080
aS'svn'
p11081
asg34
Vasp.net visual-studio svn...
p11082
sbag0
(g10620
g2
Ntp11083
Rp11084
(dp11085
g10624
(lp11086
S'c#'
p11087
aS'sorting'
p11088
aS'dictionary'
p11089
asg34
Vc# sorting dictionary...
p11090
sbag0
(g10620
g2
Ntp11091
Rp11092
(dp11093
g10624
(lp11094
S'sql'
p11095
aS'database'
p11096
aS'version-control'
p11097
asg34
Vsql database version-control...
p11098
sbag0
(g10620
g2
Ntp11099
Rp11100
(dp11101
g10624
(lp11102
S'.net'
p11103
aS'ruby'
p11104
aS'database'
p11105
asg34
V.net ruby database...
p11106
sbag0
(g10620
g2
Ntp11107
Rp11108
(dp11109
g10624
(lp11110
S'security'
p11111
aS'php'
p11112
asg34
Vsecurity php...
p11113
sbag0
(g10620
g2
Ntp11114
Rp11115
(dp11116
g10624
(lp11117
S'c++'
p11118
aS'oop'
p11119
aS'class'
p11120
aS'nested-class'
p11121
asg34
Vc++ oop class nested-class...
p11122
sbag0
(g10620
g2
Ntp11123
Rp11124
(dp11125
g10624
(lp11126
S'language-agnostic'
p11127
aS'types'
p11128
asg34
Vlanguage-agnostic types...
p11129
sbag0
(g10620
g2
Ntp11130
Rp11131
(dp11132
g10624
(lp11133
S'python'
p11134
aS'xml'
p11135
asg34
Vpython xml...
p11136
sbag0
(g10620
g2
Ntp11137
Rp11138
(dp11139
g10624
(lp11140
S'string'
p11141
aS'language-agnostic'
p11142
aS'cross-platform'
p11143
asg34
Vstring language-agnostic cross-platform...
p11144
sbag0
(g10620
g2
Ntp11145
Rp11146
(dp11147
g10624
(lp11148
S'ant'
p11149
aS'build-process'
p11150
aS'phing'
p11151
asg34
Vant build-process phing...
p11152
sbag0
(g10620
g2
Ntp11153
Rp11154
(dp11155
g10624
(lp11156
S'email'
p11157
aS'email-spam'
p11158
asg34
Vemail email-spam...
p11159
sbag0
(g10620
g2
Ntp11160
Rp11161
(dp11162
g10624
(lp11163
S'java'
p11164
aS'generics'
p11165
aS'warnings'
p11166
aS'casting'
p11167
aS'type-safety'
p11168
asg34
Vjava generics warnings casting type-safety...
p11169
sbag0
(g10620
g2
Ntp11170
Rp11171
(dp11172
g10624
(lp11173
S'search'
p11174
aS'lucene'
p11175
asg34
Vsearch lucene...
p11176
sbag0
(g10620
g2
Ntp11177
Rp11178
(dp11179
g10624
(lp11180
S'.net'
p11181
aS'vb.net'
p11182
aS'vb6'
p11183
aS'vb6-migration'
p11184
asg34
V.net vb.net vb6 vb6-migration...
p11185
sbag0
(g10620
g2
Ntp11186
Rp11187
(dp11188
g10624
(lp11189
S'iphone'
p11190
aS'objective-c'
p11191
asg34
Viphone objective-c...
p11192
sbag0
(g10620
g2
Ntp11193
Rp11194
(dp11195
g10624
(lp11196
S'com'
p11197
aS'vb6'
p11198
asg34
Vcom vb6...
p11199
sbag0
(g10620
g2
Ntp11200
Rp11201
(dp11202
g10624
(lp11203
S'windows-mobile'
p11204
aS'pocketpc'
p11205
aS'ie-mobile'
p11206
asg34
Vwindows-mobile pocketpc ie-mobile...
p11207
sbag0
(g10620
g2
Ntp11208
Rp11209
(dp11210
g10624
(lp11211
S'windows'
p11212
aS'windows-services'
p11213
aS'scheduled-tasks'
p11214
asg34
Vwindows windows-services scheduled-tasks...
p11215
sbag0
(g10620
g2
Ntp11216
Rp11217
(dp11218
g10624
(lp11219
S'ruby-on-rails'
p11220
aS'ruby'
p11221
aS'http'
p11222
asg34
Vruby-on-rails ruby http...
p11223
sbag0
(g10620
g2
Ntp11224
Rp11225
(dp11226
g10624
(lp11227
S'python'
p11228
aS'osx'
p11229
aS'fonts'
p11230
aS'photoshop'
p11231
asg34
Vpython osx fonts photoshop...
p11232
sbag0
(g10620
g2
Ntp11233
Rp11234
(dp11235
g10624
(lp11236
S'.net'
p11237
aS'web-services'
p11238
asg34
V.net web-services...
p11239
sbag0
(g10620
g2
Ntp11240
Rp11241
(dp11242
g10624
(lp11243
S'c#'
p11244
aS'winforms'
p11245
aS'data-binding'
p11246
asg34
Vc# winforms data-binding...
p11247
sbag0
(g10620
g2
Ntp11248
Rp11249
(dp11250
g10624
(lp11251
S'python'
p11252
aS'windows'
p11253
aS'image'
p11254
aS'pdf'
p11255
asg34
Vpython windows image pdf...
p11256
sbag0
(g10620
g2
Ntp11257
Rp11258
(dp11259
g10624
(lp11260
S'ruby-on-rails'
p11261
aS'ruby'
p11262
aS'crash'
p11263
asg34
Vruby-on-rails ruby crash...
p11264
sbag0
(g10620
g2
Ntp11265
Rp11266
(dp11267
g10624
(lp11268
S'python'
p11269
aS'continuous-integration'
p11270
aS'extreme-programming'
p11271
asg34
Vpython continuous-integration extreme-programming...
p11272
sbag0
(g10620
g2
Ntp11273
Rp11274
(dp11275
g10624
(lp11276
S'http'
p11277
aS'authentication'
p11278
aS'language-agnostic'
p11279
aS'article'
p11280
asg34
Vhttp authentication language-agnostic article...
p11281
sbag0
(g10620
g2
Ntp11282
Rp11283
(dp11284
g10624
(lp11285
S'unit-testing'
p11286
aS'language-agnostic'
p11287
aS'testing'
p11288
asg34
Vunit-testing language-agnostic testing...
p11289
sbag0
(g10620
g2
Ntp11290
Rp11291
(dp11292
g10624
(lp11293
S'c#'
p11294
aS'java'
p11295
aS'integer'
p11296
aS'int'
p11297
asg34
Vc# java integer int...
p11298
sbag0
(g10620
g2
Ntp11299
Rp11300
(dp11301
g10624
(lp11302
S'sql-server'
p11303
aS'deployment'
p11304
aS'release-management'
p11305
asg34
Vsql-server deployment release-management...
p11306
sbag0
(g10620
g2
Ntp11307
Rp11308
(dp11309
g10624
(lp11310
S'php'
p11311
aS'windows'
p11312
aS'exchange-server'
p11313
aS'webdav'
p11314
aS'mapi'
p11315
asg34
Vphp windows exchange-server webdav mapi...
p11316
sbag0
(g10620
g2
Ntp11317
Rp11318
(dp11319
g10624
(lp11320
S'python'
p11321
aS'sql'
p11322
aS'database'
p11323
aS'oracle'
p11324
aS'cx-oracle'
p11325
asg34
Vpython sql database oracle cx-oracle...
p11326
sbag0
(g10620
g2
Ntp11327
Rp11328
(dp11329
g10624
(lp11330
S'c#'
p11331
aS'c++'
p11332
aS'random'
p11333
asg34
Vc# c++ random...
p11334
sbag0
(g10620
g2
Ntp11335
Rp11336
(dp11337
g10624
(lp11338
S'c++'
p11339
aS'visual-studio'
p11340
aS'compatibility'
p11341
aS'windows-nt'
p11342
asg34
Vc++ visual-studio compatibility windows-nt...
p11343
sbag0
(g10620
g2
Ntp11344
Rp11345
(dp11346
g10624
(lp11347
S'performance'
p11348
aS'algorithm'
p11349
aS'primes'
p11350
asg34
Vperformance algorithm primes...
p11351
sbag0
(g10620
g2
Ntp11352
Rp11353
(dp11354
g10624
(lp11355
S'ruby'
p11356
aS'lambda'
p11357
aS'proc'
p11358
asg34
Vruby lambda proc...
p11359
sbag0
(g10620
g2
Ntp11360
Rp11361
(dp11362
g10624
(lp11363
S'sql'
p11364
aS'database'
p11365
asg34
Vsql database...
p11366
sbag0
(g10620
g2
Ntp11367
Rp11368
(dp11369
g10624
(lp11370
S'c#'
p11371
aS'visual-studio'
p11372
aS'versioning'
p11373
asg34
Vc# visual-studio versioning...
p11374
sbag0
(g10620
g2
Ntp11375
Rp11376
(dp11377
g10624
(lp11378
S'asp.net'
p11379
aS'iis'
p11380
aS'authentication'
p11381
aS'active-directory'
p11382
asg34
Vasp.net iis authentication active-directory...
p11383
sbag0
(g10620
g2
Ntp11384
Rp11385
(dp11386
g10624
(lp11387
S'encryption'
p11388
aS'passwords'
p11389
asg34
Vencryption passwords...
p11390
sbag0
(g10620
g2
Ntp11391
Rp11392
(dp11393
g10624
(lp11394
S'python'
p11395
aS'arrays'
p11396
aS'iteration'
p11397
asg34
Vpython arrays iteration...
p11398
sbag0
(g10620
g2
Ntp11399
Rp11400
(dp11401
g10624
(lp11402
S'php'
p11403
aS'database'
p11404
aS'odbc'
p11405
aS'db2'
p11406
aS'ibm-midrange'
p11407
asg34
Vphp database odbc db2 ibm-midrange...
p11408
sbag0
(g10620
g2
Ntp11409
Rp11410
(dp11411
g10624
(lp11412
S'python'
p11413
aS'ide'
p11414
aS'code-completion'
p11415
aS'wing-ide'
p11416
asg34
Vpython ide code-completion wing-ide...
p11417
sbag0
(g10620
g2
Ntp11418
Rp11419
(dp11420
g10624
(lp11421
S'.net'
p11422
aS'database'
p11423
aS'embedded-database'
p11424
asg34
V.net database embedded-database...
p11425
sbag0
(g10620
g2
Ntp11426
Rp11427
(dp11428
g10624
(lp11429
S'c#'
p11430
aS'.net'
p11431
aS'visual-studio'
p11432
aS'unit-testing'
p11433
asg34
Vc# .net visual-studio unit-testing...
p11434
sbag0
(g10620
g2
Ntp11435
Rp11436
(dp11437
g10624
(lp11438
S'asp.net'
p11439
aS'mapping'
p11440
aS'gis'
p11441
asg34
Vasp.net mapping gis...
p11442
sbag0
(g10620
g2
Ntp11443
Rp11444
(dp11445
g10624
(lp11446
S'python'
p11447
aS'django'
p11448
aS'views'
p11449
aS'oop'
p11450
asg34
Vpython django views oop...
p11451
sbag0
(g10620
g2
Ntp11452
Rp11453
(dp11454
g10624
(lp11455
S'string'
p11456
aS'language-agnostic'
p11457
aS'format'
p11458
aS'title-case'
p11459
asg34
Vstring language-agnostic format title-case...
p11460
sbag0
(g10620
g2
Ntp11461
Rp11462
(dp11463
g10624
(lp11464
S'c#'
p11465
aS'.net'
p11466
aS'reflection'
p11467
asg34
Vc# .net reflection...
p11468
sbag0
(g10620
g2
Ntp11469
Rp11470
(dp11471
g10624
(lp11472
S'.net'
p11473
aS'internationalization'
p11474
aS'date'
p11475
aS'globalization'
p11476
asg34
V.net internationalization date globalization...
p11477
sbag0
(g10620
g2
Ntp11478
Rp11479
(dp11480
g10624
(lp11481
S'python'
p11482
aS'mysql'
p11483
aS'postgresql'
p11484
aS'bpgsql'
p11485
asg34
Vpython mysql postgresql bpgsql...
p11486
sbag0
(g10620
g2
Ntp11487
Rp11488
(dp11489
g10624
(lp11490
S'math'
p11491
aS'linear-algebra'
p11492
aS'system'
p11493
aS'linear-equation'
p11494
asg34
Vmath linear-algebra system linear-equation...
p11495
sbag0
(g10620
g2
Ntp11496
Rp11497
(dp11498
g10624
(lp11499
S'python'
p11500
aS'iteration'
p11501
asg34
Vpython iteration...
p11502
sbag0
(g10620
g2
Ntp11503
Rp11504
(dp11505
g10624
(lp11506
S'database'
p11507
aS'oop'
p11508
aS'object-database'
p11509
asg34
Vdatabase oop object-database...
p11510
sbag0
(g10620
g2
Ntp11511
Rp11512
(dp11513
g10624
(lp11514
S'asp-classic'
p11515
aS'sftp'
p11516
asg34
Vasp-classic sftp...
p11517
sbag0
(g10620
g2
Ntp11518
Rp11519
(dp11520
g10624
(lp11521
S'windows'
p11522
aS'visual-studio'
p11523
aS'registry'
p11524
aS'setup'
p11525
asg34
Vwindows visual-studio registry setup...
p11526
sbag0
(g10620
g2
Ntp11527
Rp11528
(dp11529
g10624
(lp11530
S'algorithm'
p11531
aS'language-agnostic'
p11532
asg34
Valgorithm language-agnostic...
p11533
sbag0
(g10620
g2
Ntp11534
Rp11535
(dp11536
g10624
(lp11537
S'c#'
p11538
aS'linq'
p11539
asg34
Vc# linq...
p11540
sbag0
(g10620
g2
Ntp11541
Rp11542
(dp11543
g10624
(lp11544
S'sql-server'
p11545
aS'database'
p11546
asg34
Vsql-server database...
p11547
sbag0
(g10620
g2
Ntp11548
Rp11549
(dp11550
g10624
(lp11551
S'msbuild'
p11552
aS'cruisecontrol.net'
p11553
asg34
Vmsbuild cruisecontrol.net...
p11554
sbag0
(g10620
g2
Ntp11555
Rp11556
(dp11557
g10624
(lp11558
S'javascript'
p11559
aS'html'
p11560
aS'css'
p11561
aS'fonts'
p11562
asg34
Vjavascript html css fonts...
p11563
sbag0
(g10620
g2
Ntp11564
Rp11565
(dp11566
g10624
(lp11567
S'visual-studio'
p11568
aS'xslt'
p11569
aS'documentation'
p11570
aS'sandcastle'
p11571
aS'xml-comments'
p11572
asg34
Vvisual-studio xslt documentation sandcastle xml-comments...
p11573
sbag0
(g10620
g2
Ntp11574
Rp11575
(dp11576
g10624
(lp11577
S'svn'
p11578
aS'git'
p11579
asg34
Vsvn git...
p11580
sbag0
(g10620
g2
Ntp11581
Rp11582
(dp11583
g10624
(lp11584
S'php'
p11585
aS'variables'
p11586
aS'pass-by-reference'
p11587
aS'pass-by-value'
p11588
asg34
Vphp variables pass-by-reference pass-by-value...
p11589
sbag0
(g10620
g2
Ntp11590
Rp11591
(dp11592
g10624
(lp11593
S'php'
p11594
aS'debugging'
p11595
asg34
Vphp debugging...
p11596
sbag0
(g10620
g2
Ntp11597
Rp11598
(dp11599
g10624
(lp11600
S'language-agnostic'
p11601
aS'unicode'
p11602
aS'localization'
p11603
aS'internationalization'
p11604
asg34
Vlanguage-agnostic unicode localization internationalization...
p11605
sbag0
(g10620
g2
Ntp11606
Rp11607
(dp11608
g10624
(lp11609
S'svn'
p11610
aS'osx'
p11611
asg34
Vsvn osx...
p11612
sbag0
(g10620
g2
Ntp11613
Rp11614
(dp11615
g10624
(lp11616
S'html'
p11617
aS'css'
p11618
aS'text'
p11619
asg34
Vhtml css text...
p11620
sbag0
(g10620
g2
Ntp11621
Rp11622
(dp11623
g10624
(lp11624
S'sql-server'
p11625
aS'windows-server-2003'
p11626
asg34
Vsql-server windows-server-2003...
p11627
sbag0
(g10620
g2
Ntp11628
Rp11629
(dp11630
g10624
(lp11631
S'python'
p11632
asg34
Vpython...
p11633
sbag0
(g10620
g2
Ntp11634
Rp11635
(dp11636
g10624
(lp11637
S'c#'
p11638
aS'database'
p11639
aS'loops'
p11640
aS'connection'
p11641
asg34
Vc# database loops connection...
p11642
sbag0
(g10620
g2
Ntp11643
Rp11644
(dp11645
g10624
(lp11646
S'postgresql'
p11647
asg34
Vpostgresql...
p11648
sbag0
(g10620
g2
Ntp11649
Rp11650
(dp11651
g10624
(lp11652
S'c#'
p11653
aS'.net'
p11654
aS'exception'
p11655
aS'exception-handling'
p11656
asg34
Vc# .net exception exception-handling...
p11657
sbag0
(g10620
g2
Ntp11658
Rp11659
(dp11660
g10624
(lp11661
S'vb6'
p11662
asg34
Vvb6...
p11663
sbag0
(g10620
g2
Ntp11664
Rp11665
(dp11666
g10624
(lp11667
S'python'
p11668
aS'oop'
p11669
aS'monkeypatching'
p11670
asg34
Vpython oop monkeypatching...
p11671
sbag0
(g10620
g2
Ntp11672
Rp11673
(dp11674
g10624
(lp11675
S'linux'
p11676
aS'unix'
p11677
aS'vi'
p11678
asg34
Vlinux unix vi...
p11679
sbag0
(g10620
g2
Ntp11680
Rp11681
(dp11682
g10624
(lp11683
S'c#'
p11684
aS'asp.net'
p11685
asg34
Vc# asp.net...
p11686
sbag0
(g10620
g2
Ntp11687
Rp11688
(dp11689
g10624
(lp11690
S'ruby-on-rails'
p11691
aS'ruby'
p11692
aS'exception'
p11693
aS'plugins'
p11694
asg34
Vruby-on-rails ruby exception plugins...
p11695
sbag0
(g10620
g2
Ntp11696
Rp11697
(dp11698
g10624
(lp11699
S'ip'
p11700
aS'lookup'
p11701
aS'country'
p11702
asg34
Vip lookup country...
p11703
sbag0
(g10620
g2
Ntp11704
Rp11705
(dp11706
g10624
(lp11707
S'c#'
p11708
aS'winforms'
p11709
aS'flash'
p11710
aS'adobe'
p11711
aS'macromedia'
p11712
asg34
Vc# winforms flash adobe macromedia...
p11713
sbag0
(g10620
g2
Ntp11714
Rp11715
(dp11716
g10624
(lp11717
S'c#'
p11718
aS'file-locking'
p11719
asg34
Vc# file-locking...
p11720
sbag0
(g10620
g2
Ntp11721
Rp11722
(dp11723
g10624
(lp11724
S'c++'
p11725
aS'regex'
p11726
asg34
Vc++ regex...
p11727
sbag0
(g10620
g2
Ntp11728
Rp11729
(dp11730
g10624
(lp11731
S'sql'
p11732
aS'sql-server'
p11733
aS'indexing'
p11734
aS'full-text-search'
p11735
asg34
Vsql sql-server indexing full-text-search...
p11736
sbag0
(g10620
g2
Ntp11737
Rp11738
(dp11739
g10624
(lp11740
S'math'
p11741
aS'language-agnostic'
p11742
aS'floating-point'
p11743
asg34
Vmath language-agnostic floating-point...
p11744
sbag0
(g10620
g2
Ntp11745
Rp11746
(dp11747
g10624
(lp11748
S'language-agnostic'
p11749
aS'opengl'
p11750
aS'3d'
p11751
aS'directx'
p11752
asg34
Vlanguage-agnostic opengl 3d directx...
p11753
sbag0
(g10620
g2
Ntp11754
Rp11755
(dp11756
g10624
(lp11757
S'c++'
p11758
aS'windows'
p11759
aS'multithreading'
p11760
aS'debugging'
p11761
aS'memory'
p11762
asg34
Vc++ windows multithreading debugging memory...
p11763
sbag0
(g10620
g2
Ntp11764
Rp11765
(dp11766
g10624
(lp11767
S'unix'
p11768
aS'size'
p11769
asg34
Vunix size...
p11770
sbag0
(g10620
g2
Ntp11771
Rp11772
(dp11773
g10624
(lp11774
S'artificial-intelligence'
p11775
aS'email-spam'
p11776
aS'bayesian'
p11777
asg34
Vartificial-intelligence email-spam bayesian...
p11778
sbag0
(g10620
g2
Ntp11779
Rp11780
(dp11781
g10624
(lp11782
S'c++'
p11783
aS'exception'
p11784
aS'try-catch'
p11785
asg34
Vc++ exception try-catch...
p11786
sbag0
(g10620
g2
Ntp11787
Rp11788
(dp11789
g10624
(lp11790
S'database'
p11791
aS'indexing'
p11792
aS'article'
p11793
asg34
Vdatabase indexing article...
p11794
sbag0
(g10620
g2
Ntp11795
Rp11796
(dp11797
g10624
(lp11798
S'windows'
p11799
aS'language-agnostic'
p11800
aS'chm'
p11801
aS'winhelp'
p11802
asg34
Vwindows language-agnostic chm winhelp...
p11803
sbag0
(g10620
g2
Ntp11804
Rp11805
(dp11806
g10624
(lp11807
g10722
aS'malloc'
p11808
asg34
Vc malloc...
p11809
sbag0
(g10620
g2
Ntp11810
Rp11811
(dp11812
g10624
(lp11813
S'sql'
p11814
aS'database'
p11815
aS'indexing'
p11816
asg34
Vsql database indexing...
p11817
sbag0
(g10620
g2
Ntp11818
Rp11819
(dp11820
g10624
(lp11821
S'svn'
p11822
aS'msbuild'
p11823
aS'cruisecontrol.net'
p11824
asg34
Vsvn msbuild cruisecontrol.net...
p11825
sbag0
(g10620
g2
Ntp11826
Rp11827
(dp11828
g10624
(lp11829
S'python'
p11830
aS'data-structures'
p11831
aS'performance'
p11832
aS'graph'
p11833
asg34
Vpython data-structures performance graph...
p11834
sbag0
(g10620
g2
Ntp11835
Rp11836
(dp11837
g10624
(lp11838
S'ruby'
p11839
aS'open-source'
p11840
asg34
Vruby open-source...
p11841
sbag0
(g10620
g2
Ntp11842
Rp11843
(dp11844
g10624
(lp11845
S'dns'
p11846
aS'web-applications'
p11847
aS'subdomain'
p11848
aS'user'
p11849
aS'account'
p11850
asg34
Vdns web-applications subdomain user account...
p11851
sbag0
(g10620
g2
Ntp11852
Rp11853
(dp11854
g10624
(lp11855
S'c#'
p11856
aS'.net'
p11857
aS'safari'
p11858
aS'viewstate'
p11859
asg34
Vc# .net safari viewstate...
p11860
sbag0
(g10620
g2
Ntp11861
Rp11862
(dp11863
g10624
(lp11864
S'regex'
p11865
aS'parsing'
p11866
asg34
Vregex parsing...
p11867
sbag0
(g10620
g2
Ntp11868
Rp11869
(dp11870
g10624
(lp11871
S'c#'
p11872
aS'c++'
p11873
aS'sockets'
p11874
asg34
Vc# c++ sockets...
p11875
sbag0
(g10620
g2
Ntp11876
Rp11877
(dp11878
g10624
(lp11879
S'svn'
p11880
aS'version-control'
p11881
aS'cvs'
p11882
asg34
Vsvn version-control cvs...
p11883
sbag0
(g10620
g2
Ntp11884
Rp11885
(dp11886
g10624
(lp11887
S'mysql'
p11888
aS'database'
p11889
asg34
Vmysql database...
p11890
sbag0
(g10620
g2
Ntp11891
Rp11892
(dp11893
g10624
(lp11894
S'.net'
p11895
aS'collections'
p11896
aS'queue'
p11897
asg34
V.net collections queue...
p11898
sbag0
(g10620
g2
Ntp11899
Rp11900
(dp11901
g10624
(lp11902
S'.net'
p11903
aS'.net-3.5'
p11904
aS'msbuild'
p11905
aS'nant'
p11906
asg34
V.net .net-3.5 msbuild nant...
p11907
sbag0
(g10620
g2
Ntp11908
Rp11909
(dp11910
g10624
(lp11911
S'c#'
p11912
aS'.net'
p11913
aS'io'
p11914
aS'filelock'
p11915
asg34
Vc# .net io filelock...
p11916
sbag0
(g10620
g2
Ntp11917
Rp11918
(dp11919
g10624
(lp11920
S'ruby'
p11921
aS'unix'
p11922
aS'curses'
p11923
asg34
Vruby unix curses...
p11924
sbag0
(g10620
g2
Ntp11925
Rp11926
(dp11927
g10624
(lp11928
g10722
aS'audio'
p11929
aS'rockbox'
p11930
asg34
Vc audio rockbox...
p11931
sbag0
(g10620
g2
Ntp11932
Rp11933
(dp11934
g10624
(lp11935
S'language-agnostic'
p11936
aS'colors'
p11937
asg34
Vlanguage-agnostic colors...
p11938
sbag0
(g10620
g2
Ntp11939
Rp11940
(dp11941
g10624
(lp11942
S'msbuild'
p11943
aS'build-process'
p11944
aS'cruisecontrol.net'
p11945
asg34
Vmsbuild build-process cruisecontrol.net...
p11946
sbag0
(g10620
g2
Ntp11947
Rp11948
(dp11949
g10624
(lp11950
S'algorithm'
p11951
aS'language-agnostic'
p11952
aS'colors'
p11953
asg34
Valgorithm language-agnostic colors...
p11954
sbag0
(g10620
g2
Ntp11955
Rp11956
(dp11957
g10624
(lp11958
S'windows'
p11959
aS'file'
p11960
aS'filesystems'
p11961
aS'utilities'
p11962
asg34
Vwindows file filesystems utilities...
p11963
sbag0
(g10620
g2
Ntp11964
Rp11965
(dp11966
g10624
(lp11967
S'flex'
p11968
aS'air'
p11969
asg34
Vflex air...
p11970
sbag0
(g10620
g2
Ntp11971
Rp11972
(dp11973
g10624
(lp11974
S'unit-testing'
p11975
aS'glossary'
p11976
asg34
Vunit-testing glossary...
p11977
sbag0
(g10620
g2
Ntp11978
Rp11979
(dp11980
g10624
(lp11981
S'.net'
p11982
aS'nhibernate'
p11983
aS'orm'
p11984
aS'subsonic'
p11985
asg34
V.net nhibernate orm subsonic...
p11986
sbag0
(g10620
g2
Ntp11987
Rp11988
(dp11989
g10624
(lp11990
S'sql-server'
p11991
aS'windows-server-2008'
p11992
asg34
Vsql-server windows-server-2008...
p11993
sbag0
(g10620
g2
Ntp11994
Rp11995
(dp11996
g10624
(lp11997
S'asp.net'
p11998
aS'javascript'
p11999
aS'validation'
p12000
asg34
Vasp.net javascript validation...
p12001
sbag0
(g10620
g2
Ntp12002
Rp12003
(dp12004
g10624
(lp12005
S'php'
p12006
aS'apache'
p12007
aS'xampp'
p12008
aS'server-configuration'
p12009
asg34
Vphp apache xampp server-configuration...
p12010
sbag0
(g10620
g2
Ntp12011
Rp12012
(dp12013
g10624
(lp12014
S'asp.net'
p12015
aS'iis'
p12016
asg34
Vasp.net iis...
p12017
sbag0
(g10620
g2
Ntp12018
Rp12019
(dp12020
g10624
(lp12021
S'php'
p12022
aS'apache'
p12023
aS'authentication'
p12024
aS'http-authentication'
p12025
asg34
Vphp apache authentication http-authentication...
p12026
sbag0
(g10620
g2
Ntp12027
Rp12028
(dp12029
g10624
(lp12030
S'sql'
p12031
aS'permissions'
p12032
asg34
Vsql permissions...
p12033
sbag0
(g10620
g2
Ntp12034
Rp12035
(dp12036
g10624
(lp12037
S'php'
p12038
aS'parameters'
p12039
aS'error-handling'
p12040
asg34
Vphp parameters error-handling...
p12041
sbag0
(g10620
g2
Ntp12042
Rp12043
(dp12044
g10624
(lp12045
S'ajax'
p12046
aS'url'
p12047
aS'rest'
p12048
aS'address-bar'
p12049
asg34
Vajax url rest address-bar...
p12050
sbag0
(g10620
g2
Ntp12051
Rp12052
(dp12053
g10624
(lp12054
S'python'
p12055
aS'syntax'
p12056
aS'binary'
p12057
aS'literals'
p12058
asg34
Vpython syntax binary literals...
p12059
sbag0
(g10620
g2
Ntp12060
Rp12061
(dp12062
g10624
(lp12063
S'osx'
p12064
aS'vim'
p12065
aS'emacs'
p12066
aS'editor'
p12067
asg34
Vosx vim emacs editor...
p12068
sbag0
(g10620
g2
Ntp12069
Rp12070
(dp12071
g10624
(lp12072
S'visual-studio'
p12073
aS'unit-testing'
p12074
aS'continuous-integration'
p12075
aS'cruisecontrol.net'
p12076
asg34
Vvisual-studio unit-testing continuous-integration cruisecontrol.net...
p12077
sbag0
(g10620
g2
Ntp12078
Rp12079
(dp12080
g10624
(lp12081
S'iphone'
p12082
aS'html'
p12083
aS'favicon'
p12084
aS'apple-touch-icon'
p12085
asg34
Viphone html favicon apple-touch-icon...
p12086
sbag0
(g10620
g2
Ntp12087
Rp12088
(dp12089
g10624
(lp12090
S'version-control'
p12091
aS'dvcs'
p12092
asg34
Vversion-control dvcs...
p12093
sbag0
(g10620
g2
Ntp12094
Rp12095
(dp12096
g10624
(lp12097
S'c#'
p12098
aS'wpf'
p12099
aS'silverlight'
p12100
aS'polymorphism'
p12101
aS'dependency-properties'
p12102
asg34
Vc# wpf silverlight polymorphism dependency-properties...
p12103
sbag0
(g10620
g2
Ntp12104
Rp12105
(dp12106
g10624
(lp12107
S'c#'
p12108
aS'exception'
p12109
aS'error-handling'
p12110
asg34
Vc# exception error-handling...
p12111
sbag0
(g10620
g2
Ntp12112
Rp12113
(dp12114
g10624
(lp12115
S'code-review'
p12116
asg34
Vcode-review...
p12117
sbag0
(g10620
g2
Ntp12118
Rp12119
(dp12120
g10624
(lp12121
S'linux'
p12122
aS'bash'
p12123
aS'unix'
p12124
aS'shell'
p12125
asg34
Vlinux bash unix shell...
p12126
sbag0
(g10620
g2
Ntp12127
Rp12128
(dp12129
g10624
(lp12130
S'windows'
p12131
aS'iis'
p12132
aS'shell'
p12133
aS'command-line'
p12134
aS'terminal'
p12135
asg34
Vwindows iis shell command-line terminal...
p12136
sbag0
(g10620
g2
Ntp12137
Rp12138
(dp12139
g10624
(lp12140
S'iphone'
p12141
aS'favicon'
p12142
aS'apple-touch-icon'
p12143
asg34
Viphone favicon apple-touch-icon...
p12144
sbag0
(g10620
g2
Ntp12145
Rp12146
(dp12147
g10624
(lp12148
S'sql-server'
p12149
aS'sql-server-2008'
p12150
asg34
Vsql-server sql-server-2008...
p12151
sbag0
(g10620
g2
Ntp12152
Rp12153
(dp12154
g10624
(lp12155
S'php'
p12156
aS'mysql'
p12157
aS'database'
p12158
aS'svn'
p12159
aS'migration'
p12160
asg34
Vphp mysql database svn migration...
p12161
sbag0
(g10620
g2
Ntp12162
Rp12163
(dp12164
g10624
(lp12165
S'sql-server'
p12166
asg34
Vsql-server...
p12167
sbag0
(g10620
g2
Ntp12168
Rp12169
(dp12170
g10624
(lp12171
S'ruby'
p12172
aS'language-agnostic'
p12173
aS'xfdl'
p12174
asg34
Vruby language-agnostic xfdl...
p12175
sbag0
(g10620
g2
Ntp12176
Rp12177
(dp12178
g10624
(lp12179
S'visual-studio'
p12180
aS'design'
p12181
aS'projects-and-solutions'
p12182
asg34
Vvisual-studio design projects-and-solutions...
p12183
sbag0
(g10620
g2
Ntp12184
Rp12185
(dp12186
g10624
(lp12187
S'windows'
p12188
aS'xml'
p12189
aS'linux'
p12190
asg34
Vwindows xml linux...
p12191
sbag0
(g10620
g2
Ntp12192
Rp12193
(dp12194
g10624
(lp12195
S'podcast'
p12196
asg34
Vpodcast...
p12197
sbag0
(g10620
g2
Ntp12198
Rp12199
(dp12200
g10624
(lp12201
S'compiler'
p12202
aS'language-agnostic'
p12203
asg34
Vcompiler language-agnostic...
p12204
sbag0
(g10620
g2
Ntp12205
Rp12206
(dp12207
g10624
(lp12208
S'statistics'
p12209
aS'spss'
p12210
asg34
Vstatistics spss...
p12211
sbag0
(g10620
g2
Ntp12212
Rp12213
(dp12214
g10624
(lp12215
S'asp.net'
p12216
aS'profile'
p12217
asg34
Vasp.net profile...
p12218
sbag0
(g10620
g2
Ntp12219
Rp12220
(dp12221
g10624
(lp12222
S'web-services'
p12223
aS'application-integration'
p12224
asg34
Vweb-services application-integration...
p12225
sbag0
(g10620
g2
Ntp12226
Rp12227
(dp12228
g10624
(lp12229
S'resources'
p12230
asg34
Vresources...
p12231
sbag0
(g10620
g2
Ntp12232
Rp12233
(dp12234
g10624
(lp12235
S'python'
p12236
aS'xml'
p12237
aS'database'
p12238
aS'protocol-buffers'
p12239
asg34
Vpython xml database protocol-buffers...
p12240
sbag0
(g10620
g2
Ntp12241
Rp12242
(dp12243
g10624
(lp12244
S'php'
p12245
aS'regex'
p12246
aS'html-parsing'
p12247
aS'preg-replace'
p12248
asg34
Vphp regex html-parsing preg-replace...
p12249
sbag0
(g10620
g2
Ntp12250
Rp12251
(dp12252
g10624
(lp12253
S'c#'
p12254
aS'.net'
p12255
aS'unit-testing'
p12256
aS'testing'
p12257
asg34
Vc# .net unit-testing testing...
p12258
sbag0
(g10620
g2
Ntp12259
Rp12260
(dp12261
g10624
(lp12262
S'php'
p12263
aS'ternary-operator'
p12264
asg34
Vphp ternary-operator...
p12265
sbag0
(g10620
g2
Ntp12266
Rp12267
(dp12268
g10624
(lp12269
S'svn'
p12270
aS'version-control'
p12271
asg34
Vsvn version-control...
p12272
sbag0
(g10620
g2
Ntp12273
Rp12274
(dp12275
g10624
(lp12276
S'python'
p12277
asg34
Vpython...
p12278
sbag0
(g10620
g2
Ntp12279
Rp12280
(dp12281
g10624
(lp12282
S'c#'
p12283
aS'winapi'
p12284
aS'mouse'
p12285
asg34
Vc# winapi mouse...
p12286
sbag0
(g10620
g2
Ntp12287
Rp12288
(dp12289
g10624
(lp12290
S'c#'
p12291
aS'image'
p12292
aS'image-processing'
p12293
aS'artificial-intelligence'
p12294
asg34
Vc# image image-processing artificial-intelligence...
p12295
sbag0
(g10620
g2
Ntp12296
Rp12297
(dp12298
g10624
(lp12299
S'python'
p12300
asg34
Vpython...
p12301
sbag0
(g10620
g2
Ntp12302
Rp12303
(dp12304
g10624
(lp12305
S'sql-server'
p12306
aS'database'
p12307
aS'documentation'
p12308
aS'data-dictionary'
p12309
asg34
Vsql-server database documentation data-dictionary...
p12310
sbag0
(g10620
g2
Ntp12311
Rp12312
(dp12313
g10624
(lp12314
S'asp.net'
p12315
aS'javascript'
p12316
aS'anchor'
p12317
aS'quotes'
p12318
asg34
Vasp.net javascript anchor quotes...
p12319
sbag0
(g10620
g2
Ntp12320
Rp12321
(dp12322
g10624
(lp12323
S'c#'
p12324
aS'vb.net'
p12325
aS'file'
p12326
aS'csv'
p12327
aS'import'
p12328
asg34
Vc# vb.net file csv import...
p12329
sbag0
(g10620
g2
Ntp12330
Rp12331
(dp12332
g10624
(lp12333
S'math'
p12334
aS'maps'
p12335
aS'mapping'
p12336
aS'latitude-longitude'
p12337
asg34
Vmath maps mapping latitude-longitude...
p12338
sbag0
(g10620
g2
Ntp12339
Rp12340
(dp12341
g10624
(lp12342
S'c#'
p12343
aS'asp.net-mvc'
p12344
asg34
Vc# asp.net-mvc...
p12345
sbag0
(g10620
g2
Ntp12346
Rp12347
(dp12348
g10624
(lp12349
S'asp.net'
p12350
aS'.net'
p12351
aS'linq-to-sql'
p12352
aS'datacontext'
p12353
asg34
Vasp.net .net linq-to-sql datacontext...
p12354
sbag0
(g10620
g2
Ntp12355
Rp12356
(dp12357
g10624
(lp12358
S'sql'
p12359
aS'database'
p12360
aS'postgresql'
p12361
aS'stored-procedures'
p12362
aS'triggers'
p12363
asg34
Vsql database postgresql stored-procedures triggers...
p12364
sbag0
(g10620
g2
Ntp12365
Rp12366
(dp12367
g10624
(lp12368
S'python'
p12369
aS'sql'
p12370
aS'database'
p12371
aS'security'
p12372
aS'sql-injection'
p12373
asg34
Vpython sql database security sql-injection...
p12374
sbag0
(g10620
g2
Ntp12375
Rp12376
(dp12377
g10624
(lp12378
S'c++'
p12379
aS'cpu'
p12380
aS'throttle'
p12381
asg34
Vc++ cpu throttle...
p12382
sbag0
(g10620
g2
Ntp12383
Rp12384
(dp12385
g10624
(lp12386
S'python'
p12387
aS'list'
p12388
aS'tuples'
p12389
asg34
Vpython list tuples...
p12390
sbatp12391
ba(lp12392
g15
(g16
(dp12393
g18
g19
(g20
(I0
tp12394
g22
tp12395
Rp12396
(I1
(I2
tp12397
g29
I00
S'\x00\x00\x00\x00\x00\x00\x00\x00\x01\x00\x00\x00\x00\x00\x00\x00'
p12398
tp12399
bsg34
Nstp12400
Rp12401
a(dp12402
S'0.14.1'
p12403
(dp12404
S'axes'
p12405
g14
sS'blocks'
p12406
(lp12407
(dp12408
S'mgr_locs'
p12409
c__builtin__
slice
p12410
(I0
I2
I1
tp12411
Rp12412
sS'values'
p12413
g49
sasstp12414
bsb.