ccopy_reg
_reconstructor
p0
(cpandas.core.frame
DataFrame
p1
c__builtin__
object
p2
Ntp3
Rp4
(dp5
S'_metadata'
p6
(lp7
sS'_typ'
p8
S'dataframe'
p9
sS'_data'
p10
g0
(cpandas.core.internals
BlockManager
p11
g2
Ntp12
Rp13
((lp14
cpandas.core.index
_new_Index
p15
(cpandas.core.index
Int64Index
p16
(dp17
S'data'
p18
cnumpy.core.multiarray
_reconstruct
p19
(cnumpy
ndarray
p20
(I0
tp21
S'b'
p22
tp23
Rp24
(I1
(I2
tp25
cnumpy
dtype
p26
(S'i8'
p27
I0
I1
tp28
Rp29
(I3
S'<'
p30
NNNI-1
I-1
I0
tp31
bI00
S'\x00\x00\x00\x00\x00\x00\x00\x00\x01\x00\x00\x00\x00\x00\x00\x00'
p32
tp33
bsS'name'
p34
Nstp35
Rp36
ag15
(g16
(dp37
g18
g19
(g20
(I0
tp38
g22
tp39
Rp40
(I1
(I129
tp41
g29
I00
S'\x00\x00\x00\x00\x00\x00\x00\x00\x01\x00\x00\x00\x00\x00\x00\x00\x02\x00\x00\x00\x00\x00\x00\x00\x03\x00\x00\x00\x00\x00\x00\x00\x04\x00\x00\x00\x00\x00\x00\x00\x05\x00\x00\x00\x00\x00\x00\x00\x06\x00\x00\x00\x00\x00\x00\x00\x07\x00\x00\x00\x00\x00\x00\x00\x08\x00\x00\x00\x00\x00\x00\x00\t\x00\x00\x00\x00\x00\x00\x00\n\x00\x00\x00\x00\x00\x00\x00\x0b\x00\x00\x00\x00\x00\x00\x00\x0c\x00\x00\x00\x00\x00\x00\x00\r\x00\x00\x00\x00\x00\x00\x00\x0e\x00\x00\x00\x00\x00\x00\x00\x0f\x00\x00\x00\x00\x00\x00\x00\x10\x00\x00\x00\x00\x00\x00\x00\x11\x00\x00\x00\x00\x00\x00\x00\x12\x00\x00\x00\x00\x00\x00\x00\x13\x00\x00\x00\x00\x00\x00\x00\x14\x00\x00\x00\x00\x00\x00\x00\x15\x00\x00\x00\x00\x00\x00\x00\x16\x00\x00\x00\x00\x00\x00\x00\x17\x00\x00\x00\x00\x00\x00\x00\x18\x00\x00\x00\x00\x00\x00\x00\x19\x00\x00\x00\x00\x00\x00\x00\x1a\x00\x00\x00\x00\x00\x00\x00\x1b\x00\x00\x00\x00\x00\x00\x00\x1c\x00\x00\x00\x00\x00\x00\x00\x1d\x00\x00\x00\x00\x00\x00\x00\x1e\x00\x00\x00\x00\x00\x00\x00\x1f\x00\x00\x00\x00\x00\x00\x00 \x00\x00\x00\x00\x00\x00\x00!\x00\x00\x00\x00\x00\x00\x00"\x00\x00\x00\x00\x00\x00\x00#\x00\x00\x00\x00\x00\x00\x00$\x00\x00\x00\x00\x00\x00\x00%\x00\x00\x00\x00\x00\x00\x00&\x00\x00\x00\x00\x00\x00\x00\'\x00\x00\x00\x00\x00\x00\x00(\x00\x00\x00\x00\x00\x00\x00)\x00\x00\x00\x00\x00\x00\x00*\x00\x00\x00\x00\x00\x00\x00+\x00\x00\x00\x00\x00\x00\x00,\x00\x00\x00\x00\x00\x00\x00-\x00\x00\x00\x00\x00\x00\x00.\x00\x00\x00\x00\x00\x00\x00/\x00\x00\x00\x00\x00\x00\x000\x00\x00\x00\x00\x00\x00\x001\x00\x00\x00\x00\x00\x00\x002\x00\x00\x00\x00\x00\x00\x003\x00\x00\x00\x00\x00\x00\x004\x00\x00\x00\x00\x00\x00\x005\x00\x00\x00\x00\x00\x00\x006\x00\x00\x00\x00\x00\x00\x007\x00\x00\x00\x00\x00\x00\x008\x00\x00\x00\x00\x00\x00\x009\x00\x00\x00\x00\x00\x00\x00:\x00\x00\x00\x00\x00\x00\x00;\x00\x00\x00\x00\x00\x00\x00<\x00\x00\x00\x00\x00\x00\x00=\x00\x00\x00\x00\x00\x00\x00>\x00\x00\x00\x00\x00\x00\x00?\x00\x00\x00\x00\x00\x00\x00@\x00\x00\x00\x00\x00\x00\x00A\x00\x00\x00\x00\x00\x00\x00B\x00\x00\x00\x00\x00\x00\x00C\x00\x00\x00\x00\x00\x00\x00D\x00\x00\x00\x00\x00\x00\x00E\x00\x00\x00\x00\x00\x00\x00F\x00\x00\x00\x00\x00\x00\x00G\x00\x00\x00\x00\x00\x00\x00H\x00\x00\x00\x00\x00\x00\x00I\x00\x00\x00\x00\x00\x00\x00J\x00\x00\x00\x00\x00\x00\x00K\x00\x00\x00\x00\x00\x00\x00L\x00\x00\x00\x00\x00\x00\x00M\x00\x00\x00\x00\x00\x00\x00N\x00\x00\x00\x00\x00\x00\x00O\x00\x00\x00\x00\x00\x00\x00P\x00\x00\x00\x00\x00\x00\x00Q\x00\x00\x00\x00\x00\x00\x00R\x00\x00\x00\x00\x00\x00\x00S\x00\x00\x00\x00\x00\x00\x00T\x00\x00\x00\x00\x00\x00\x00U\x00\x00\x00\x00\x00\x00\x00V\x00\x00\x00\x00\x00\x00\x00W\x00\x00\x00\x00\x00\x00\x00X\x00\x00\x00\x00\x00\x00\x00Y\x00\x00\x00\x00\x00\x00\x00Z\x00\x00\x00\x00\x00\x00\x00[\x00\x00\x00\x00\x00\x00\x00\\\x00\x00\x00\x00\x00\x00\x00]\x00\x00\x00\x00\x00\x00\x00^\x00\x00\x00\x00\x00\x00\x00_\x00\x00\x00\x00\x00\x00\x00`\x00\x00\x00\x00\x00\x00\x00a\x00\x00\x00\x00\x00\x00\x00b\x00\x00\x00\x00\x00\x00\x00c\x00\x00\x00\x00\x00\x00\x00d\x00\x00\x00\x00\x00\x00\x00e\x00\x00\x00\x00\x00\x00\x00f\x00\x00\x00\x00\x00\x00\x00g\x00\x00\x00\x00\x00\x00\x00h\x00\x00\x00\x00\x00\x00\x00i\x00\x00\x00\x00\x00\x00\x00j\x00\x00\x00\x00\x00\x00\x00k\x00\x00\x00\x00\x00\x00\x00l\x00\x00\x00\x00\x00\x00\x00m\x00\x00\x00\x00\x00\x00\x00n\x00\x00\x00\x00\x00\x00\x00o\x00\x00\x00\x00\x00\x00\x00p\x00\x00\x00\x00\x00\x00\x00q\x00\x00\x00\x00\x00\x00\x00r\x00\x00\x00\x00\x00\x00\x00s\x00\x00\x00\x00\x00\x00\x00t\x00\x00\x00\x00\x00\x00\x00u\x00\x00\x00\x00\x00\x00\x00v\x00\x00\x00\x00\x00\x00\x00w\x00\x00\x00\x00\x00\x00\x00x\x00\x00\x00\x00\x00\x00\x00y\x00\x00\x00\x00\x00\x00\x00z\x00\x00\x00\x00\x00\x00\x00{\x00\x00\x00\x00\x00\x00\x00|\x00\x00\x00\x00\x00\x00\x00}\x00\x00\x00\x00\x00\x00\x00~\x00\x00\x00\x00\x00\x00\x00\x7f\x00\x00\x00\x00\x00\x00\x00\x80\x00\x00\x00\x00\x00\x00\x00'
p42
tp43
bsg34
Nstp44
Rp45
a(lp46
g19
(g20
(I0
tp47
g22
tp48
Rp49
(I1
(I2
I129
tp50
g26
(S'O8'
p51
I0
I1
tp52
Rp53
(I3
S'|'
p54
NNNI-1
I-1
I63
tp55
bI00
(lp56
S'8'
p57
aS'9'
p58
aS'1'
p59
aS'11'
p60
aS'2'
p61
aS'13'
p62
aS'22'
p63
aS'23'
p64
aS'32'
p65
aS'33'
p66
aS'37'
p67
aS'40'
p68
aS'45'
p69
aS'17'
p70
aS'25'
p71
aS'58'
p72
aS'26'
p73
aS'59'
p74
aS'61'
p75
aS'39'
p76
aS'72'
p77
aS'71'
p78
aS'83'
p79
aS'78'
p80
aS'48'
p81
aS'87'
p82
aS'30'
p83
aS'91'
p84
aS'96'
p85
aS'2089740'
p86
aS'60'
p87
aS'146637'
p88
aS'62'
p89
aS'100'
p90
aS'103'
p91
aS'104'
p92
aS'105'
p93
aS'109'
p94
aS'106'
p95
aS'34'
p96
aS'63'
p97
aS'111'
p98
aS'115'
p99
aS'117'
p100
aS'49'
p101
aS'122'
p102
aS'134'
p103
aS'118'
p104
aS'136'
p105
aS'268'
p106
aS'123'
p107
aS'147'
p108
aS'77'
p109
aS'151'
p110
aS'154'
p111
aS'157'
p112
aS'172'
p113
aS'116'
p114
aS'2189331'
p115
aS'179'
p116
aS'184'
p117
aS'191'
p118
aS'143'
p119
aS'192'
p120
aS'199'
p121
aS'204'
p122
aS'173'
p123
aS'205'
p124
aS'189'
p125
aS'214'
p126
aS'1384652'
p127
aS'79'
p128
aS'207'
p129
aS'230'
p130
aS'232'
p131
aS'233'
p132
aS'101'
p133
aS'224'
p134
aS'186'
p135
aS'238'
p136
aS'93'
p137
aS'203'
p138
aS'131'
p139
aS'200'
p140
aS'137'
p141
aS'243'
p142
aS'245'
p143
aS'246'
p144
aS'145'
p145
aS'85'
p146
aS'67'
p147
aS'234'
p148
aS'231'
p149
aS'254'
p150
aS'257'
p151
aS'236'
p152
aS'260'
p153
aS'264'
p154
aS'188'
p155
aS'120'
p156
aS'280'
p157
aS'281'
p158
aS'258'
p159
aS'194'
p160
aS'292'
p161
aS'121'
p162
aS'302'
p163
aS'306'
p164
aS'312'
p165
aS'314'
p166
aS'149'
p167
aS'287'
p168
aS'331'
p169
aS'92'
p170
aS'27'
p171
aS'332'
p172
aS'328'
p173
aS'340'
p174
aS'55'
p175
aS'350'
p176
aS'349'
p177
aS'303'
p178
aS'36'
p179
aS'358'
p180
aS'242'
p181
aS'81'
p182
aS'364'
p183
aS'51'
p184
aS'2090742'
p185
a(dp186
S'c#'
p187
I1
sS'opacity'
p188
I1
sS'type-conversion'
p189
I1
sS'winforms'
p190
I1
sa(dp191
S'css3'
p192
I1
sS'c#'
p193
I1
sS'visualj#'
p194
I1
sS'internet-explorer-7'
p195
I1
sS'timezoneoffset'
p196
I1
sS'html'
p197
I2
sS'code-generation'
p198
I1
sS'timezone'
p199
I1
sS'browser'
p200
I1
sS'css'
p201
I1
sS'j#'
p202
I1
sa(dp203
S'c#'
p204
I1
sS'datediff'
p205
I1
sS'.net'
p206
I1
sS'datetime'
p207
I1
sa(dp208
S'msdn'
p209
I1
sS'.net'
p210
I1
sS'math'
p211
I1
sS'visual-studio'
p212
I1
sa(dp213
S'database'
p214
I1
sS'c#'
p215
I1
sS'sql-server'
p216
I1
sS'sql'
p217
I1
sS'indexing'
p218
I1
sS'linq'
p219
I1
sS'web-services'
p220
I1
sS'data-storage'
p221
I1
sS'full-text-search'
p222
I1
sS'mysql'
p223
I1
sS'.net-3.5'
p224
I1
sS'binary-data'
p225
I1
sa(dp226
S'floating-point'
p227
I1
sS'algorithm'
p228
I1
sS'unix'
p229
I1
sS'performance'
p230
I1
sS'language-agnostic'
p231
I2
sS'pi'
p232
I1
sS'math'
p233
I1
sa(dp234
S'database'
p235
I1
sS'triggers'
p236
I1
sS'mysql'
p237
I1
sa(dp238
S'c'
p239
I1
sS'mainframe'
p240
I1
sS'zos'
p241
I1
sS'sockets'
p242
I1
sS'c++'
p243
I1
sa(dp244
S'sql-server'
p245
I1
sS'datatable'
p246
I1
sS'rdbms'
p247
I1
sa(dp248
S'c#'
p249
I1
sS'vb.net'
p250
I1
sS'.net'
p251
I1
sS'timer'
p252
I1
sa(dp253
S'hook'
p254
I1
sS'php'
p255
I1
sS'architecture'
p256
I1
sS'plugins'
p257
I1
sa(dp258
S'html-form'
p259
I1
sS'command-line'
p260
I1
sS'iis'
p261
I1
sS'windows'
p262
I1
sS'terminal'
p263
I1
sS'submit-button'
p264
I1
sS'html'
p265
I1
sS'form-submit'
p266
I1
sS'shell'
p267
I1
sa(dp268
S'c#'
p269
I1
sS'.net-3.5'
p270
I1
sS'linq'
p271
I1
sa(dp272
S'.net-3.5'
p273
I1
sS'linq'
p274
I1
sa(dp275
S'xfdl'
p276
I1
sS'java'
p277
I1
sS'open-source'
p278
I1
sS'c#'
p279
I1
sS'rdoc'
p280
I1
sS'int'
p281
I1
sS'integer'
p282
I1
sS'language-agnostic'
p283
I1
sS'ruby'
p284
I3
sa(dp285
S'svn'
p286
I2
sS'code-review'
p287
I1
sS'php'
p288
I4
sS'java'
p289
I1
sS'theory'
p290
I1
sS'pass-by-value'
p291
I1
sS'error-handling'
p292
I1
sS'subclipse'
p293
I1
sS'variables'
p294
I1
sS'eclipse'
p295
I1
sS'parameters'
p296
I1
sS'aptana'
p297
I1
sS'oop'
p298
I1
sS'branch'
p299
I1
sS'apache'
p300
I1
sS'server-configuration'
p301
I1
sS'xampp'
p302
I1
sS'tortoisesvn'
p303
I1
sS'pass-by-reference'
p304
I1
sS'branching-and-merging'
p305
I1
sa(dp306
S'asp.net'
p307
I1
sS'flex'
p308
I2
sS'air'
p309
I2
sS'iis'
p310
I1
sS'actionscript-3'
p311
I1
sa(dp312
S'xml'
p313
I1
sS'protocol-buffers'
p314
I1
sS'database'
p315
I2
sS'python'
p316
I1
sS'flat-file'
p317
I1
sS'sql'
p318
I1
sS'security'
p319
I1
sS'php'
p320
I2
sa(dp321
g239
I1
sS'winapi'
p322
I1
sS'gtk'
p323
I1
sS'c++'
p324
I1
sS'visual-c++'
p325
I1
sS'unix'
p326
I1
sS'timer'
p327
I1
sS'linux'
p328
I2
sS'x11'
p329
I1
sS'language-agnostic'
p330
I1
sS'types'
p331
I1
sa(dp332
S'performance'
p333
I1
sS'memory-leaks'
p334
I1
sS'.net'
p335
I1
sS'com-interop'
p336
I1
sa(dp337
S'svn'
p338
I2
sS'database'
p339
I1
sS'windows'
p340
I1
sS'64bit'
p341
I1
sS'migration'
p342
I1
sS'mysql'
p343
I1
sS'php'
p344
I1
sa(dp345
S'sqlite'
p346
I1
sS'database'
p347
I2
sS'c#'
p348
I1
sS'vb.net'
p349
I1
sS'.net'
p350
I3
sS'hex'
p351
I1
sS'web-services'
p352
I1
sS'xsd'
p353
I1
sS'sql'
p354
I1
sS'ascii'
p355
I1
sa(dp356
S'svn'
p357
I2
sS'database'
p358
I1
sS'asp.net'
p359
I2
sS'sql-server'
p360
I1
sS'.net'
p361
I1
sS'apple-touch-icon'
p362
I2
sS'utilities'
p363
I1
sS'filesystems'
p364
I1
sS'windows'
p365
I1
sS'membership'
p366
I1
sS'version-control'
p367
I1
sS'versioning'
p368
I1
sS'file'
p369
I1
sS'sql'
p370
I1
sS'favicon'
p371
I2
sS'navigation'
p372
I1
sS'html'
p373
I1
sS'sitemap'
p374
I1
sS'iphone'
p375
I2
sa(dp376
S'xml'
p377
I1
sS'data-conversion'
p378
I1
sS'csv'
p379
I1
sS'java'
p380
I1
sa(dp381
S'sql-server'
p382
I1
sS'csv'
p383
I1
sS'bcp'
p384
I1
sS'mysql'
p385
I1
sa(dp386
S'compression'
p387
I1
sS'c#'
p388
I1
sS'ip'
p389
I1
sS'.net'
p390
I1
sS'decompression'
p391
I1
sS'country'
p392
I1
sS'lookup'
p393
I1
sa(dp394
S'database'
p395
I1
sS'analytics'
p396
I1
sS'python'
p397
I1
sS'download'
p398
I1
sS'mysql'
p399
I1
sS'apache'
p400
I1
sS'php'
p401
I1
sa(dp402
S'msbuild'
p403
I2
sS'release-management'
p404
I1
sS'mysql'
p405
I1
sS'internationalization'
p406
I1
sS'winhelp'
p407
I1
sS'podcast'
p408
I1
sS'asp.net'
p409
I2
sS'media'
p410
I1
sS'sql-server'
p411
I2
sS'chm'
p412
I1
sS'globalization'
p413
I1
sS'.net-3.5'
p414
I1
sS'nant'
p415
I1
sS'visual-studio'
p416
I1
sS'c#'
p417
I2
sS'deployment'
p418
I1
sS'apache'
p419
I1
sS'php'
p420
I1
sS'language-agnostic'
p421
I1
sS'compiler'
p422
I1
sS'svn'
p423
I1
sS'database'
p424
I1
sS'windows'
p425
I2
sS'embedded-database'
p426
I1
sS'cruisecontrol.net'
p427
I1
sS'.net'
p428
I4
sS'virtualhost'
p429
I1
sS'embed'
p430
I1
sS'scripting'
p431
I1
sa(dp432
S'c#'
p433
I1
sS'printing'
p434
I1
sS'html'
p435
I1
sS'web-services'
p436
I1
sa(dp437
S'color-space'
p438
I1
sS'algorithm'
p439
I2
sS'youtube'
p440
I1
sS'colors'
p441
I3
sS'language-agnostic'
p442
I3
sS'annotations'
p443
I1
sS'reverse-engineering'
p444
I1
sa(dp445
S'sql-server'
p446
I2
sS'windows-server-2008'
p447
I1
sS'migration'
p448
I1
sa(dp449
S'arrays'
p450
I1
sS'php'
p451
I1
sS'tag-cloud'
p452
I1
sS'cloud'
p453
I1
sa(dp454
S'windows'
p455
I1
sS'mailto'
p456
I1
sa(dp457
S'version-control'
p458
I1
sS'dvcs'
p459
I1
sS'git'
p460
I1
sS'github'
p461
I1
sa(dp462
S'forms'
p463
I1
sS'php'
p464
I1
sa(dp465
S'berkeley-db'
p466
I1
sS'c++'
p467
I1
sa(dp468
S'svn'
p469
I1
sS'collaboration'
p470
I1
sa(dp471
S'c#'
p472
I1
sS'sorting'
p473
I1
sS'dictionary'
p474
I1
sa(dp475
S'version-control'
p476
I1
sS'permissions'
p477
I1
sS'database'
p478
I1
sS'sql'
p479
I2
sa(dp480
S'database'
p481
I1
sS'text'
p482
I1
sS'.net'
p483
I1
sS'html'
p484
I1
sS'ruby'
p485
I1
sS'css'
p486
I1
sa(dp487
S'nested-class'
p488
I1
sS'oop'
p489
I1
sS'c++'
p490
I1
sS'class'
p491
I1
sa(dp492
S'xml'
p493
I1
sS'windows-services'
p494
I1
sS'c#'
p495
I1
sS'python'
p496
I1
sS'.net'
p497
I1
sS'windows'
p498
I1
sS'scheduled-tasks'
p499
I1
sS'unit-testing'
p500
I1
sS'visual-studio'
p501
I1
sa(dp502
S'encryption'
p503
I1
sS'language-agnostic'
p504
I1
sS'passwords'
p505
I1
sS'string'
p506
I1
sS'cross-platform'
p507
I1
sa(dp508
S'build-process'
p509
I1
sS'shell'
p510
I1
sS'phing'
p511
I1
sS'ant'
p512
I1
sS'unix'
p513
I1
sS'linux'
p514
I1
sS'bash'
p515
I1
sa(dp516
S'email-spam'
p517
I1
sS'email'
p518
I1
sa(dp519
S'type-safety'
p520
I1
sS'casting'
p521
I1
sS'java'
p522
I1
sS'generics'
p523
I1
sS'warnings'
p524
I1
sa(dp525
S'lucene'
p526
I1
sS'search'
p527
I1
sa(dp528
S'vb.net'
p529
I1
sS'.net'
p530
I1
sS'vb6-migration'
p531
I1
sS'vb6'
p532
I1
sa(dp533
S'osx'
p534
I1
sS'http'
p535
I2
sS'ruby-on-rails'
p536
I1
sS'proc'
p537
I1
sS'objective-c'
p538
I1
sS'vim'
p539
I1
sS'authentication'
p540
I1
sS'emacs'
p541
I1
sS'iphone'
p542
I1
sS'article'
p543
I1
sS'language-agnostic'
p544
I1
sS'editor'
p545
I1
sS'ruby'
p546
I2
sS'lambda'
p547
I1
sa(dp548
S'com'
p549
I1
sS'vb6'
p550
I1
sa(dp551
S'windows-mobile'
p552
I1
sS'ie-mobile'
p553
I1
sS'pocketpc'
p554
I1
sa(dp555
S'osx'
p556
I1
sS'photoshop'
p557
I1
sS'python'
p558
I2
sS'image'
p559
I1
sS'fonts'
p560
I1
sS'windows'
p561
I1
sS'pdf'
p562
I1
sa(dp563
S'c#'
p564
I1
sS'winforms'
p565
I1
sS'data-binding'
p566
I1
sa(dp567
S'crash'
p568
I1
sS'ruby'
p569
I1
sS'ruby-on-rails'
p570
I1
sa(dp571
S'python'
p572
I1
sS'continuous-integration'
p573
I1
sS'extreme-programming'
p574
I1
sa(dp575
S'unit-testing'
p576
I1
sS'language-agnostic'
p577
I1
sS'testing'
p578
I1
sa(dp579
S'webdav'
p580
I1
sS'exchange-server'
p581
I1
sS'windows'
p582
I1
sS'mouse'
p583
I1
sS'mapi'
p584
I1
sS'c#'
p585
I1
sS'php'
p586
I1
sS'winapi'
p587
I1
sa(dp588
S'postgresql'
p589
I1
sS'stored-procedures'
p590
I1
sS'database'
p591
I3
sS'python'
p592
I4
sS'triggers'
p593
I1
sS'list'
p594
I1
sS'cx-oracle'
p595
I1
sS'tuples'
p596
I1
sS'sql'
p597
I3
sS'oracle'
p598
I1
sS'security'
p599
I1
sS'sql-injection'
p600
I1
sa(dp601
S'regex'
p602
I1
sS'opengl'
p603
I1
sS'c#'
p604
I1
sS'random'
p605
I1
sS'c++'
p606
I2
sS'language-agnostic'
p607
I1
sS'directx'
p608
I1
sS'3d'
p609
I1
sa(dp610
S'windows-nt'
p611
I1
sS'visual-studio'
p612
I1
sS'c++'
p613
I1
sS'compatibility'
p614
I1
sa(dp615
S'performance'
p616
I1
sS'primes'
p617
I1
sS'algorithm'
p618
I1
sa(dp619
S'database'
p620
I1
sS'sql'
p621
I1
sa(dp622
S'c#'
p623
I1
sS'versioning'
p624
I1
sS'visual-studio'
p625
I1
sa(dp626
S'c#'
p627
I1
sS'string'
p628
I1
sS'iis'
p629
I1
sS'format'
p630
I1
sS'asp.net'
p631
I1
sS'.net'
p632
I2
sS'queue'
p633
I1
sS'active-directory'
p634
I1
sS'authentication'
p635
I1
sS'collections'
p636
I1
sS'language-agnostic'
p637
I1
sS'title-case'
p638
I1
sS'reflection'
p639
I1
sa(dp640
S'python'
p641
I1
sS'arrays'
p642
I1
sS'iteration'
p643
I1
sa(dp644
S'xml'
p645
I1
sS'php'
p646
I1
sS'database'
p647
I1
sS'windows'
p648
I1
sS'sql-server'
p649
I1
sS'odbc'
p650
I1
sS'windows-server-2003'
p651
I1
sS'ibm-midrange'
p652
I1
sS'linux'
p653
I1
sS'db2'
p654
I1
sa(dp655
S'python'
p656
I1
sS'wing-ide'
p657
I1
sS'ide'
p658
I1
sS'code-completion'
p659
I1
sa(dp660
S'asp.net'
p661
I1
sS'gis'
p662
I1
sS'mapping'
p663
I1
sa(dp664
S'python'
p665
I1
sS'views'
p666
I1
sS'oop'
p667
I1
sS'django'
p668
I1
sa(dp669
S'internationalization'
p670
I1
sS'date'
p671
I1
sS'globalization'
p672
I1
sS'.net'
p673
I1
sa(dp674
S'python'
p675
I1
sS'postgresql'
p676
I1
sS'bpgsql'
p677
I1
sS'mysql'
p678
I1
sa(dp679
S'latitude-longitude'
p680
I1
sS'maps'
p681
I1
sS'mapping'
p682
I1
sS'system'
p683
I1
sS'linear-equation'
p684
I1
sS'linear-algebra'
p685
I1
sS'math'
p686
I2
sa(dp687
S'python'
p688
I1
sS'iteration'
p689
I1
sa(dp690
S'regex'
p691
I1
sS'sql-server-2008'
p692
I1
sS'database'
p693
I1
sS'sql-server'
p694
I1
sS'.net'
p695
I1
sS'object-database'
p696
I1
sS'parsing'
p697
I1
sS'orm'
p698
I1
sS'design'
p699
I1
sS'oop'
p700
I1
sS'projects-and-solutions'
p701
I1
sS'nhibernate'
p702
I1
sS'subsonic'
p703
I1
sS'visual-studio'
p704
I1
sa(dp705
S'asp-classic'
p706
I1
sS'sftp'
p707
I1
sa(dp708
S'exception'
p709
I1
sS'windows'
p710
I1
sS'setup'
p711
I1
sS'.net'
p712
I1
sS'exception-handling'
p713
I1
sS'c#'
p714
I1
sS'registry'
p715
I1
sS'visual-studio'
p716
I1
sa(dp717
S'language-agnostic'
p718
I1
sS'algorithm'
p719
I1
sa(dp720
S'c#'
p721
I1
sS'linq'
p722
I1
sa(dp723
S'sql-server'
p724
I1
sS'database'
p725
I1
sa(dp726
S'fonts'
p727
I1
sS'javascript'
p728
I1
sS'html'
p729
I1
sS'css'
p730
I1
sa(dp731
S'polymorphism'
p732
I1
sS'silverlight'
p733
I1
sS'dependency-properties'
p734
I1
sS'xml-comments'
p735
I1
sS'xslt'
p736
I1
sS'sandcastle'
p737
I1
sS'documentation'
p738
I1
sS'c#'
p739
I1
sS'wpf'
p740
I1
sS'visual-studio'
p741
I1
sa(dp742
S'svn'
p743
I1
sS'git'
p744
I1
sa(dp745
S'debugging'
p746
I1
sS'php'
p747
I1
sa(dp748
S'internationalization'
p749
I1
sS'language-agnostic'
p750
I1
sS'unicode'
p751
I1
sS'localization'
p752
I1
sa(dp753
S'svn'
p754
I1
sS'osx'
p755
I1
sS'html-parsing'
p756
I1
sS'preg-replace'
p757
I1
sS'regex'
p758
I1
sS'php'
p759
I2
sS'ternary-operator'
p760
I1
sa(dp761
S'python'
p762
I1
sS'vb6'
p763
I1
sa(dp764
S'c#'
p765
I1
sS'loops'
p766
I1
sS'connection'
p767
I1
sS'database'
p768
I1
sa(dp769
S'postgresql'
p770
I1
sa(dp771
S'python'
p772
I1
sS'oop'
p773
I1
sS'monkeypatching'
p774
I1
sa(dp775
S'vi'
p776
I1
sS'unix'
p777
I1
sS'linux'
p778
I1
sa(dp779
S'c#'
p780
I1
sS'asp.net'
p781
I1
sa(dp782
S'exception'
p783
I1
sS'testing'
p784
I1
sS'ruby-on-rails'
p785
I1
sS'c#'
p786
I1
sS'.net'
p787
I1
sS'plugins'
p788
I1
sS'unit-testing'
p789
I1
sS'ruby'
p790
I1
sa(dp791
S'c#'
p792
I1
sS'flash'
p793
I1
sS'macromedia'
p794
I1
sS'winforms'
p795
I1
sS'adobe'
p796
I1
sa(dp797
S'c#'
p798
I1
sS'file-locking'
p799
I1
sa(dp800
S'windows'
p801
I1
sS'debugging'
p802
I1
sS'multithreading'
p803
I1
sS'c++'
p804
I1
sS'memory'
p805
I1
sa(dp806
S'try-catch'
p807
I1
sS'unix'
p808
I1
sS'exception'
p809
I1
sS'c++'
p810
I1
sS'size'
p811
I1
sa(dp812
S'email-spam'
p813
I1
sS'bayesian'
p814
I1
sS'artificial-intelligence'
p815
I1
sa(dp816
S'article'
p817
I1
sS'sql'
p818
I1
sS'indexing'
p819
I2
sS'database'
p820
I2
sa(dp821
g239
I1
sS'malloc'
p822
I1
sa(dp823
S'svn'
p824
I1
sS'cruisecontrol.net'
p825
I1
sS'msbuild'
p826
I1
sa(dp827
S'python'
p828
I1
sS'data-structures'
p829
I1
sS'graph'
p830
I1
sS'performance'
p831
I1
sa(dp832
S'account'
p833
I1
sS'web-applications'
p834
I1
sS'subdomain'
p835
I1
sS'user'
p836
I1
sS'dns'
p837
I1
sa(dp838
S'c#'
p839
I1
sS'.net'
p840
I1
sS'safari'
p841
I1
sS'viewstate'
p842
I1
sa(dp843
S'c#'
p844
I1
sS'svn'
p845
I1
sS'version-control'
p846
I1
sS'sockets'
p847
I1
sS'c++'
p848
I1
sa(dp849
S'svn'
p850
I1
sS'version-control'
p851
I1
sS'cvs'
p852
I1
sa(dp853
S'c#'
p854
I1
sS'.net'
p855
I1
sS'io'
p856
I1
sS'filelock'
p857
I1
sa(dp858
S'unix'
p859
I1
sS'ruby'
p860
I1
sS'curses'
p861
I1
sa(dp862
g239
I1
sS'audio'
p863
I1
sS'rockbox'
p864
I1
sa(dp865
S'build-process'
p866
I1
sS'cruisecontrol.net'
p867
I1
sS'msbuild'
p868
I1
sa(dp869
S'glossary'
p870
I1
sS'unit-testing'
p871
I1
sa(dp872
S'asp.net'
p873
I1
sS'dvcs'
p874
I1
sS'javascript'
p875
I1
sS'version-control'
p876
I1
sS'validation'
p877
I1
sa(dp878
S'apache'
p879
I1
sS'authentication'
p880
I1
sS'php'
p881
I1
sS'http-authentication'
p882
I1
sa(dp883
S'url'
p884
I1
sS'ajax'
p885
I1
sS'address-bar'
p886
I1
sS'rest'
p887
I1
sa(dp888
S'python'
p889
I1
sS'binary'
p890
I1
sS'literals'
p891
I1
sS'syntax'
p892
I1
sa(dp893
S'unit-testing'
p894
I1
sS'continuous-integration'
p895
I1
sS'cruisecontrol.net'
p896
I1
sS'visual-studio'
p897
I1
sa(dp898
S'c#'
p899
I1
sS'exception'
p900
I1
sS'error-handling'
p901
I1
sa(dp902
S'sql-server'
p903
I1
sa(dp904
S'language-agnostic'
p905
I1
sS'compiler'
p906
I1
sa(dp907
S'statistics'
p908
I1
sS'spss'
p909
I1
sa(dp910
S'asp.net'
p911
I1
sS'profile'
p912
I1
sa(dp913
S'application-integration'
p914
I1
sS'web-services'
p915
I1
sa(dp916
S'resources'
p917
I1
sa(dp918
S'c#'
p919
I1
sS'image-processing'
p920
I1
sS'image'
p921
I1
sS'artificial-intelligence'
p922
I1
sa(dp923
S'sql-server'
p924
I1
sS'documentation'
p925
I1
sS'data-dictionary'
p926
I1
sS'database'
p927
I1
sa(dp928
S'asp.net'
p929
I1
sS'quotes'
p930
I1
sS'javascript'
p931
I1
sS'anchor'
p932
I1
sa(dp933
S'c#'
p934
I1
sS'vb.net'
p935
I1
sS'csv'
p936
I1
sS'file'
p937
I1
sS'import'
p938
I1
sa(dp939
S'c#'
p940
I1
sS'asp.net-mvc'
p941
I1
sa(dp942
S'asp.net'
p943
I1
sS'linq-to-sql'
p944
I1
sS'datacontext'
p945
I1
sS'.net'
p946
I1
sa(dp947
S'throttle'
p948
I1
sS'cpu'
p949
I1
sS'c++'
p950
I1
satp951
ba(lp952
g15
(g16
(dp953
g18
g19
(g20
(I0
tp954
g22
tp955
Rp956
(I1
(I2
tp957
g29
I00
S'\x00\x00\x00\x00\x00\x00\x00\x00\x01\x00\x00\x00\x00\x00\x00\x00'
p958
tp959
bsg34
Nstp960
Rp961
a(dp962
S'0.14.1'
p963
(dp964
S'axes'
p965
g14
sS'blocks'
p966
(lp967
(dp968
S'mgr_locs'
p969
c__builtin__
slice
p970
(I0
I2
I1
tp971
Rp972
sS'values'
p973
g49
sasstp974
bsb.